(dp1
S'output'
p2
S"<type 'exceptions.AttributeError'> 'tuple' object has no attribute 'split'"
p3
sS'layer'
p4
S'/home/ayush/web2py/applications/admin/models/0.py'
p5
sS'code'
p6
S'EXPIRATION = 60 * 60  # logout after 60 minutes of inactivity\nCHECK_VERSION = True\nWEB2PY_URL = \'http://web2py.com\'\nWEB2PY_VERSION_URL = WEB2PY_URL + \'/examples/default/version\'\n\n###########################################################################\n# Preferences for EditArea\n# the user-interface feature that allows you to edit files in your web\n# browser.\n\n# if demo mode is True then admin works readonly and does not require login\nDEMO_MODE = False\n\n# if visible_apps is not empty only listed apps will be accessible\nFILTER_APPS = []\n\n# To upload on google app engine this has to point to the proper appengine\n# config file\nimport os\n# extract google_appengine_x.x.x.zip to web2py root directory\n#GAE_APPCFG = os.path.abspath(os.path.join(\'appcfg.py\'))\n# extract google_appengine_x.x.x.zip to applications/admin/private/\nGAE_APPCFG = os.path.abspath(os.path.join(\'/usr/local/bin/appcfg.py\'))\n\n# To use web2py as a teaching tool, set MULTI_USER_MODE to True\nMULTI_USER_MODE = False\nEMAIL_SERVER = \'localhost\'\nEMAIL_SENDER = \'professor@example.com\'\nEMAIL_LOGIN = None\n\n# configurable twitterbox, set to None/False to suppress\nTWITTER_HASH = "web2py"\n\n# parameter for downloading LAYOUTS\nLAYOUTS_APP = \'http://web2py.com/layouts\'\n#LAYOUTS_APP = \'http://127.0.0.1:8000/layouts\'\n\n\n# parameter for downloading PLUGINS\nPLUGINS_APP = \'http://web2py.com/plugins\'\n#PLUGINS_APP = \'http://127.0.0.1:8000/plugins\'\n\n# set the language\nif \'adminLanguage\' in request.cookies and not (request.cookies[\'adminLanguage\'] is None):\n    T.force(request.cookies[\'adminLanguage\'].value)\n\n#set static_version\nfrom gluon.settings import global_settings\nresponse.static_version = global_settings.web2py_version.split(\'-\')[0]\nresponse.static_version_urls = True\n'
p7
sS'snapshot'
p8
(dp9
S'exception'
p10
(dp11
S'__hash__'
p12
S"<method-wrapper '__hash__' of exceptions.AttributeError object>"
p13
sS'__setattr__'
p14
S"<method-wrapper '__setattr__' of exceptions.AttributeError object>"
p15
sS'__reduce_ex__'
p16
S'<built-in method __reduce_ex__ of exceptions.AttributeError object>'
p17
sS'__getslice__'
p18
S"<method-wrapper '__getslice__' of exceptions.AttributeError object>"
p19
sS'__getitem__'
p20
S"<method-wrapper '__getitem__' of exceptions.AttributeError object>"
p21
sS'__setstate__'
p22
S'<built-in method __setstate__ of exceptions.AttributeError object>'
p23
sS'__reduce__'
p24
S'<built-in method __reduce__ of exceptions.AttributeError object>'
p25
sS'__str__'
p26
S"<method-wrapper '__str__' of exceptions.AttributeError object>"
p27
sS'__format__'
p28
S'<built-in method __format__ of exceptions.AttributeError object>'
p29
sS'__getattribute__'
p30
S"<method-wrapper '__getattribute__' of exceptions.AttributeError object>"
p31
sS'__class__'
p32
S"<type 'exceptions.AttributeError'>"
p33
sS'__unicode__'
p34
S'<built-in method __unicode__ of exceptions.AttributeError object>'
p35
sS'__delattr__'
p36
S"<method-wrapper '__delattr__' of exceptions.AttributeError object>"
p37
sS'__subclasshook__'
p38
S'<built-in method __subclasshook__ of type object>'
p39
sS'__repr__'
p40
S"<method-wrapper '__repr__' of exceptions.AttributeError object>"
p41
sS'args'
p42
S'("\'tuple\' object has no attribute \'split\'",)'
p43
sS'__dict__'
p44
S'{}'
p45
sS'__sizeof__'
p46
S'<built-in method __sizeof__ of exceptions.AttributeError object>'
p47
sS'__doc__'
p48
S"'Attribute not found.'"
p49
sS'__init__'
p50
S"<method-wrapper '__init__' of exceptions.AttributeError object>"
p51
sS'__new__'
p52
S'<built-in method __new__ of type object>'
p53
ssS'evalue'
p54
S"'tuple' object has no attribute 'split'"
p55
sS'request'
p56
ccopy_reg
_reconstructor
p57
(cgluon.html
BEAUTIFY
p58
c__builtin__
object
p59
NtRp60
(dp61
S'attributes'
p62
(dp63
sS'components'
p64
(lp65
g57
(cgluon.html
TABLE
p66
g59
NtRp67
(dp68
g62
(dp69
S'level'
p70
I5
ssS'parent'
p71
Nsg64
(lp72
g57
(cgluon.html
TR
p73
g59
NtRp74
(dp75
g62
(dp76
sg71
g67
sg64
(lp77
g57
(cgluon.html
TD
p78
g59
NtRp79
(dp80
g62
(dp81
S'_style'
p82
S'font-weight:bold;vertical-align:top'
p83
ssg71
g74
sg64
(lp84
S'ajax'
p85
asbag57
(g78
g59
NtRp86
(dp87
g62
(dp88
S'_valign'
p89
S'top'
p90
ssg71
g74
sg64
(lp91
S':'
asbag57
(g78
g59
NtRp92
(dp93
g62
(dp94
sg71
g74
sg64
(lp95
g57
(g58
g59
NtRp96
(dp97
g62
(dp98
g70
I5
ssg71
g92
sg64
(lp99
S'False'
p100
asbasbasbag57
(g73
g59
NtRp101
(dp102
g62
(dp103
sg71
g67
sg64
(lp104
g57
(g78
g59
NtRp105
(dp106
g62
(dp107
g82
g83
ssg71
g101
sg64
(lp108
S'application'
p109
asbag57
(g78
g59
NtRp110
(dp111
g62
(dp112
g89
g90
ssg71
g101
sg64
(lp113
S':'
asbag57
(g78
g59
NtRp114
(dp115
g62
(dp116
sg71
g101
sg64
(lp117
g57
(g58
g59
NtRp118
(dp119
g62
(dp120
g70
I5
ssg71
g114
sg64
(lp121
S'admin'
p122
asbasbasbag57
(g73
g59
NtRp123
(dp124
g62
(dp125
sg71
g67
sg64
(lp126
g57
(g78
g59
NtRp127
(dp128
g62
(dp129
g82
g83
ssg71
g123
sg64
(lp130
g42
asbag57
(g78
g59
NtRp131
(dp132
g62
(dp133
g89
g90
ssg71
g123
sg64
(lp134
S':'
asbag57
(g78
g59
NtRp135
(dp136
g62
(dp137
sg71
g123
sg64
(lp138
g57
(g58
g59
NtRp139
(dp140
g62
(dp141
g70
I5
ssg71
g135
sg64
(lp142
g57
(g66
g59
NtRp143
(dp144
g62
(dp145
g70
I4
ssg71
Nsg64
(lp146
g57
(g73
g59
NtRp147
(dp148
g62
(dp149
sg71
g143
sg64
(lp150
g57
(g78
g59
NtRp151
(dp152
g62
(dp153
sg71
g147
sg64
(lp154
g57
(g58
g59
NtRp155
(dp156
g62
(dp157
g70
I4
ssg71
g151
sg64
(lp158
S'welcome'
p159
asbasbasbag57
(g73
g59
NtRp160
(dp161
g62
(dp162
sg71
g143
sg64
(lp163
g57
(g78
g59
NtRp164
(dp165
g62
(dp166
sg71
g160
sg64
(lp167
g57
(g58
g59
NtRp168
(dp169
g62
(dp170
g70
I4
ssg71
g164
sg64
(lp171
S'127.0.0.1.2017-01-07.21-55-32.aa4c3cbc-e438-424e-93c3-d3e3891a79b6'
p172
asbasbasbasbasbasbasbag57
(g73
g59
NtRp173
(dp174
g62
(dp175
sg71
g67
sg64
(lp176
g57
(g78
g59
NtRp177
(dp178
g62
(dp179
g82
g83
ssg71
g173
sg64
(lp180
S'body'
p181
asbag57
(g78
g59
NtRp182
(dp183
g62
(dp184
g89
g90
ssg71
g173
sg64
(lp185
S':'
asbag57
(g78
g59
NtRp186
(dp187
g62
(dp188
sg71
g173
sg64
(lp189
g57
(g58
g59
NtRp190
(dp191
g62
(dp192
g70
I5
ssg71
g186
sg64
(lp193
S'<cStringIO.StringO object at 0xaa33e840>'
p194
asbasbasbag57
(g73
g59
NtRp195
(dp196
g62
(dp197
sg71
g67
sg64
(lp198
g57
(g78
g59
NtRp199
(dp200
g62
(dp201
g82
g83
ssg71
g195
sg64
(lp202
S'client'
p203
asbag57
(g78
g59
NtRp204
(dp205
g62
(dp206
g89
g90
ssg71
g195
sg64
(lp207
S':'
asbag57
(g78
g59
NtRp208
(dp209
g62
(dp210
sg71
g195
sg64
(lp211
g57
(g58
g59
NtRp212
(dp213
g62
(dp214
g70
I5
ssg71
g208
sg64
(lp215
S'127.0.0.1'
p216
asbasbasbag57
(g73
g59
NtRp217
(dp218
g62
(dp219
sg71
g67
sg64
(lp220
g57
(g78
g59
NtRp221
(dp222
g62
(dp223
g82
g83
ssg71
g217
sg64
(lp224
S'controller'
p225
asbag57
(g78
g59
NtRp226
(dp227
g62
(dp228
g89
g90
ssg71
g217
sg64
(lp229
S':'
asbag57
(g78
g59
NtRp230
(dp231
g62
(dp232
sg71
g217
sg64
(lp233
g57
(g58
g59
NtRp234
(dp235
g62
(dp236
g70
I5
ssg71
g230
sg64
(lp237
S'default'
p238
asbasbasbag57
(g73
g59
NtRp239
(dp240
g62
(dp241
sg71
g67
sg64
(lp242
g57
(g78
g59
NtRp243
(dp244
g62
(dp245
g82
g83
ssg71
g239
sg64
(lp246
S'cookies'
p247
asbag57
(g78
g59
NtRp248
(dp249
g62
(dp250
g89
g90
ssg71
g239
sg64
(lp251
S':'
asbag57
(g78
g59
NtRp252
(dp253
g62
(dp254
sg71
g239
sg64
(lp255
g57
(g58
g59
NtRp256
(dp257
g62
(dp258
g70
I5
ssg71
g252
sg64
(lp259
g57
(g66
g59
NtRp260
(dp261
g62
(dp262
g70
I4
ssg71
Nsg64
(lp263
sbasbasbasbag57
(g73
g59
NtRp264
(dp265
g62
(dp266
sg71
g67
sg64
(lp267
g57
(g78
g59
NtRp268
(dp269
g62
(dp270
g82
g83
ssg71
g264
sg64
(lp271
S'env'
p272
asbag57
(g78
g59
NtRp273
(dp274
g62
(dp275
g89
g90
ssg71
g264
sg64
(lp276
S':'
asbag57
(g78
g59
NtRp277
(dp278
g62
(dp279
sg71
g264
sg64
(lp280
g57
(g58
g59
NtRp281
(dp282
g62
(dp283
g70
I5
ssg71
g277
sg64
(lp284
g57
(g66
g59
NtRp285
(dp286
g62
(dp287
g70
I4
ssg71
Nsg64
(lp288
g57
(g73
g59
NtRp289
(dp290
g62
(dp291
sg71
g285
sg64
(lp292
g57
(g78
g59
NtRp293
(dp294
g62
(dp295
g82
g83
ssg71
g289
sg64
(lp296
S'app_folders'
p297
asbag57
(g78
g59
NtRp298
(dp299
g62
(dp300
g89
g90
ssg71
g289
sg64
(lp301
S':'
asbag57
(g78
g59
NtRp302
(dp303
g62
(dp304
sg71
g289
sg64
(lp305
g57
(g58
g59
NtRp306
(dp307
g62
(dp308
g70
I4
ssg71
g302
sg64
(lp309
S"set(['/home/ayush/web2py/applications/admin/', '/home/ayush/web2py/applications/welcome/'])"
p310
asbasbasbag57
(g73
g59
NtRp311
(dp312
g62
(dp313
sg71
g285
sg64
(lp314
g57
(g78
g59
NtRp315
(dp316
g62
(dp317
g82
g83
ssg71
g311
sg64
(lp318
S'applications_parent'
p319
asbag57
(g78
g59
NtRp320
(dp321
g62
(dp322
g89
g90
ssg71
g311
sg64
(lp323
S':'
asbag57
(g78
g59
NtRp324
(dp325
g62
(dp326
sg71
g311
sg64
(lp327
g57
(g58
g59
NtRp328
(dp329
g62
(dp330
g70
I4
ssg71
g324
sg64
(lp331
S'/home/ayush/web2py'
p332
asbasbasbag57
(g73
g59
NtRp333
(dp334
g62
(dp335
sg71
g285
sg64
(lp336
g57
(g78
g59
NtRp337
(dp338
g62
(dp339
g82
g83
ssg71
g333
sg64
(lp340
S'cmd_args'
p341
asbag57
(g78
g59
NtRp342
(dp343
g62
(dp344
g89
g90
ssg71
g333
sg64
(lp345
S':'
asbag57
(g78
g59
NtRp346
(dp347
g62
(dp348
sg71
g333
sg64
(lp349
g57
(g58
g59
NtRp350
(dp351
g62
(dp352
g70
I4
ssg71
g346
sg64
(lp353
g57
(g66
g59
NtRp354
(dp355
g62
(dp356
g70
I3
ssg71
Nsg64
(lp357
sbasbasbasbag57
(g73
g59
NtRp358
(dp359
g62
(dp360
sg71
g285
sg64
(lp361
g57
(g78
g59
NtRp362
(dp363
g62
(dp364
g82
g83
ssg71
g358
sg64
(lp365
S'cmd_options'
p366
asbag57
(g78
g59
NtRp367
(dp368
g62
(dp369
g89
g90
ssg71
g358
sg64
(lp370
S':'
asbag57
(g78
g59
NtRp371
(dp372
g62
(dp373
sg71
g358
sg64
(lp374
g57
(g58
g59
NtRp375
(dp376
g62
(dp377
g70
I4
ssg71
g371
sg64
(lp378
S"<Values at 0xb718440c: {'verbose': False, 'ip': '127.0.0.1', 'shutdown_timeout': 5, 'taskbar': False, 'nocron': False, 'pid_filename': 'httpserver.pid', 'maxthreads': None, 'softcron': False, 'server_name': 'ayush-HP-430-Notebook-PC', 'bpython': False, 'nogui': False, 'port': 8000, 'extcron': False, 'debuglevel': 30, 'test': None, 'folder': '/home/ayush/web2py', 'config': '', 'import_models': False, 'winservice': '', 'shell': None, 'run': '', 'log_filename': 'httpserver.log', 'args': [''], 'socket_timeout': 5, 'ssl_ca_certificate': None, 'scheduler': None, 'profiler_filename': None, 'ssl_private_key': '', 'password': '<ask>', 'request_queue_size': 5, 'ssl_certificate': '', 'cronjob': False, 'numthreads': None, 'quiet': False, 'interfaces': None, 'minthreads': None, 'timeout': 10, 'plain': False, 'nobanner': False}>"
p379
asbasbasbag57
(g73
g59
NtRp380
(dp381
g62
(dp382
sg71
g285
sg64
(lp383
g57
(g78
g59
NtRp384
(dp385
g62
(dp386
g82
g83
ssg71
g380
sg64
(lp387
S'db_sessions'
p388
asbag57
(g78
g59
NtRp389
(dp390
g62
(dp391
g89
g90
ssg71
g380
sg64
(lp392
S':'
asbag57
(g78
g59
NtRp393
(dp394
g62
(dp395
sg71
g380
sg64
(lp396
g57
(g58
g59
NtRp397
(dp398
g62
(dp399
g70
I4
ssg71
g393
sg64
(lp400
S'set([])'
p401
asbasbasbag57
(g73
g59
NtRp402
(dp403
g62
(dp404
sg71
g285
sg64
(lp405
g57
(g78
g59
NtRp406
(dp407
g62
(dp408
g82
g83
ssg71
g402
sg64
(lp409
S'debugging'
p410
asbag57
(g78
g59
NtRp411
(dp412
g62
(dp413
g89
g90
ssg71
g402
sg64
(lp414
S':'
asbag57
(g78
g59
NtRp415
(dp416
g62
(dp417
sg71
g402
sg64
(lp418
g57
(g58
g59
NtRp419
(dp420
g62
(dp421
g70
I4
ssg71
g415
sg64
(lp422
g100
asbasbasbag57
(g73
g59
NtRp423
(dp424
g62
(dp425
sg71
g285
sg64
(lp426
g57
(g78
g59
NtRp427
(dp428
g62
(dp429
g82
g83
ssg71
g423
sg64
(lp430
S'gluon_parent'
p431
asbag57
(g78
g59
NtRp432
(dp433
g62
(dp434
g89
g90
ssg71
g423
sg64
(lp435
S':'
asbag57
(g78
g59
NtRp436
(dp437
g62
(dp438
sg71
g423
sg64
(lp439
g57
(g58
g59
NtRp440
(dp441
g62
(dp442
g70
I4
ssg71
g436
sg64
(lp443
S'/usr/share/web2py'
p444
asbasbasbag57
(g73
g59
NtRp445
(dp446
g62
(dp447
sg71
g285
sg64
(lp448
g57
(g78
g59
NtRp449
(dp450
g62
(dp451
g82
g83
ssg71
g445
sg64
(lp452
S'http_accept'
p453
asbag57
(g78
g59
NtRp454
(dp455
g62
(dp456
g89
g90
ssg71
g445
sg64
(lp457
S':'
asbag57
(g78
g59
NtRp458
(dp459
g62
(dp460
sg71
g445
sg64
(lp461
g57
(g58
g59
NtRp462
(dp463
g62
(dp464
g70
I4
ssg71
g458
sg64
(lp465
S'text/html,application/xhtml+xml,application/xml;q=0.9,*/*;q=0.8'
p466
asbasbasbag57
(g73
g59
NtRp467
(dp468
g62
(dp469
sg71
g285
sg64
(lp470
g57
(g78
g59
NtRp471
(dp472
g62
(dp473
g82
g83
ssg71
g467
sg64
(lp474
S'http_accept_encoding'
p475
asbag57
(g78
g59
NtRp476
(dp477
g62
(dp478
g89
g90
ssg71
g467
sg64
(lp479
S':'
asbag57
(g78
g59
NtRp480
(dp481
g62
(dp482
sg71
g467
sg64
(lp483
g57
(g58
g59
NtRp484
(dp485
g62
(dp486
g70
I4
ssg71
g480
sg64
(lp487
S'gzip, deflate'
p488
asbasbasbag57
(g73
g59
NtRp489
(dp490
g62
(dp491
sg71
g285
sg64
(lp492
g57
(g78
g59
NtRp493
(dp494
g62
(dp495
g82
g83
ssg71
g489
sg64
(lp496
S'http_accept_language'
p497
asbag57
(g78
g59
NtRp498
(dp499
g62
(dp500
g89
g90
ssg71
g489
sg64
(lp501
S':'
asbag57
(g78
g59
NtRp502
(dp503
g62
(dp504
sg71
g489
sg64
(lp505
g57
(g58
g59
NtRp506
(dp507
g62
(dp508
g70
I4
ssg71
g502
sg64
(lp509
S'en-US,en;q=0.5'
p510
asbasbasbag57
(g73
g59
NtRp511
(dp512
g62
(dp513
sg71
g285
sg64
(lp514
g57
(g78
g59
NtRp515
(dp516
g62
(dp517
g82
g83
ssg71
g511
sg64
(lp518
S'http_connection'
p519
asbag57
(g78
g59
NtRp520
(dp521
g62
(dp522
g89
g90
ssg71
g511
sg64
(lp523
S':'
asbag57
(g78
g59
NtRp524
(dp525
g62
(dp526
sg71
g511
sg64
(lp527
g57
(g58
g59
NtRp528
(dp529
g62
(dp530
g70
I4
ssg71
g524
sg64
(lp531
S'keep-alive'
p532
asbasbasbag57
(g73
g59
NtRp533
(dp534
g62
(dp535
sg71
g285
sg64
(lp536
g57
(g78
g59
NtRp537
(dp538
g62
(dp539
g82
g83
ssg71
g533
sg64
(lp540
S'http_host'
p541
asbag57
(g78
g59
NtRp542
(dp543
g62
(dp544
g89
g90
ssg71
g533
sg64
(lp545
S':'
asbag57
(g78
g59
NtRp546
(dp547
g62
(dp548
sg71
g533
sg64
(lp549
g57
(g58
g59
NtRp550
(dp551
g62
(dp552
g70
I4
ssg71
g546
sg64
(lp553
S'127.0.0.1:8000'
p554
asbasbasbag57
(g73
g59
NtRp555
(dp556
g62
(dp557
sg71
g285
sg64
(lp558
g57
(g78
g59
NtRp559
(dp560
g62
(dp561
g82
g83
ssg71
g555
sg64
(lp562
S'http_referer'
p563
asbag57
(g78
g59
NtRp564
(dp565
g62
(dp566
g89
g90
ssg71
g555
sg64
(lp567
S':'
asbag57
(g78
g59
NtRp568
(dp569
g62
(dp570
sg71
g555
sg64
(lp571
g57
(g58
g59
NtRp572
(dp573
g62
(dp574
g70
I4
ssg71
g568
sg64
(lp575
S'http://127.0.0.1:8000/welcome/default/index'
p576
asbasbasbag57
(g73
g59
NtRp577
(dp578
g62
(dp579
sg71
g285
sg64
(lp580
g57
(g78
g59
NtRp581
(dp582
g62
(dp583
g82
g83
ssg71
g577
sg64
(lp584
S'http_upgrade_insecure_requests'
p585
asbag57
(g78
g59
NtRp586
(dp587
g62
(dp588
g89
g90
ssg71
g577
sg64
(lp589
S':'
asbag57
(g78
g59
NtRp590
(dp591
g62
(dp592
sg71
g577
sg64
(lp593
g57
(g58
g59
NtRp594
(dp595
g62
(dp596
g70
I4
ssg71
g590
sg64
(lp597
S'1'
asbasbasbag57
(g73
g59
NtRp598
(dp599
g62
(dp600
sg71
g285
sg64
(lp601
g57
(g78
g59
NtRp602
(dp603
g62
(dp604
g82
g83
ssg71
g598
sg64
(lp605
S'http_user_agent'
p606
asbag57
(g78
g59
NtRp607
(dp608
g62
(dp609
g89
g90
ssg71
g598
sg64
(lp610
S':'
asbag57
(g78
g59
NtRp611
(dp612
g62
(dp613
sg71
g598
sg64
(lp614
g57
(g58
g59
NtRp615
(dp616
g62
(dp617
g70
I4
ssg71
g611
sg64
(lp618
S'Mozilla/5.0 (X11; Ubuntu; Linux i686; rv:50.0) Gecko/20100101 Firefox/50.0'
p619
asbasbasbag57
(g73
g59
NtRp620
(dp621
g62
(dp622
sg71
g285
sg64
(lp623
g57
(g78
g59
NtRp624
(dp625
g62
(dp626
g82
g83
ssg71
g620
sg64
(lp627
S'is_jython'
p628
asbag57
(g78
g59
NtRp629
(dp630
g62
(dp631
g89
g90
ssg71
g620
sg64
(lp632
S':'
asbag57
(g78
g59
NtRp633
(dp634
g62
(dp635
sg71
g620
sg64
(lp636
g57
(g58
g59
NtRp637
(dp638
g62
(dp639
g70
I4
ssg71
g633
sg64
(lp640
g100
asbasbasbag57
(g73
g59
NtRp641
(dp642
g62
(dp643
sg71
g285
sg64
(lp644
g57
(g78
g59
NtRp645
(dp646
g62
(dp647
g82
g83
ssg71
g641
sg64
(lp648
S'is_pypy'
p649
asbag57
(g78
g59
NtRp650
(dp651
g62
(dp652
g89
g90
ssg71
g641
sg64
(lp653
S':'
asbag57
(g78
g59
NtRp654
(dp655
g62
(dp656
sg71
g641
sg64
(lp657
g57
(g58
g59
NtRp658
(dp659
g62
(dp660
g70
I4
ssg71
g654
sg64
(lp661
g100
asbasbasbag57
(g73
g59
NtRp662
(dp663
g62
(dp664
sg71
g285
sg64
(lp665
g57
(g78
g59
NtRp666
(dp667
g62
(dp668
g82
g83
ssg71
g662
sg64
(lp669
S'path_info'
p670
asbag57
(g78
g59
NtRp671
(dp672
g62
(dp673
g89
g90
ssg71
g662
sg64
(lp674
S':'
asbag57
(g78
g59
NtRp675
(dp676
g62
(dp677
sg71
g662
sg64
(lp678
g57
(g58
g59
NtRp679
(dp680
g62
(dp681
g70
I4
ssg71
g675
sg64
(lp682
S'/admin/default/ticket/welcome/127.0.0.1.2017-01-07.21-55-32.aa4c3cbc-e438-424e-93c3-d3e3891a79b6'
p683
asbasbasbag57
(g73
g59
NtRp684
(dp685
g62
(dp686
sg71
g285
sg64
(lp687
g57
(g78
g59
NtRp688
(dp689
g62
(dp690
g82
g83
ssg71
g684
sg64
(lp691
S'query_string'
p692
asbag57
(g78
g59
NtRp693
(dp694
g62
(dp695
g89
g90
ssg71
g684
sg64
(lp696
S':'
asbag57
(g78
g59
NtRp697
(dp698
g62
(dp699
sg71
g684
sg64
(lp700
g57
(g58
g59
NtRp701
(dp702
g62
(dp703
g70
I4
ssg71
g697
sg64
(lp704
S''
asbasbasbag57
(g73
g59
NtRp705
(dp706
g62
(dp707
sg71
g285
sg64
(lp708
g57
(g78
g59
NtRp709
(dp710
g62
(dp711
g82
g83
ssg71
g705
sg64
(lp712
S'remote_addr'
p713
asbag57
(g78
g59
NtRp714
(dp715
g62
(dp716
g89
g90
ssg71
g705
sg64
(lp717
S':'
asbag57
(g78
g59
NtRp718
(dp719
g62
(dp720
sg71
g705
sg64
(lp721
g57
(g58
g59
NtRp722
(dp723
g62
(dp724
g70
I4
ssg71
g718
sg64
(lp725
g216
asbasbasbag57
(g73
g59
NtRp726
(dp727
g62
(dp728
sg71
g285
sg64
(lp729
g57
(g78
g59
NtRp730
(dp731
g62
(dp732
g82
g83
ssg71
g726
sg64
(lp733
S'remote_port'
p734
asbag57
(g78
g59
NtRp735
(dp736
g62
(dp737
g89
g90
ssg71
g726
sg64
(lp738
S':'
asbag57
(g78
g59
NtRp739
(dp740
g62
(dp741
sg71
g726
sg64
(lp742
g57
(g58
g59
NtRp743
(dp744
g62
(dp745
g70
I4
ssg71
g739
sg64
(lp746
S'44538'
p747
asbasbasbag57
(g73
g59
NtRp748
(dp749
g62
(dp750
sg71
g285
sg64
(lp751
g57
(g78
g59
NtRp752
(dp753
g62
(dp754
g82
g83
ssg71
g748
sg64
(lp755
S'request_method'
p756
asbag57
(g78
g59
NtRp757
(dp758
g62
(dp759
g89
g90
ssg71
g748
sg64
(lp760
S':'
asbag57
(g78
g59
NtRp761
(dp762
g62
(dp763
sg71
g748
sg64
(lp764
g57
(g58
g59
NtRp765
(dp766
g62
(dp767
g70
I4
ssg71
g761
sg64
(lp768
S'GET'
p769
asbasbasbag57
(g73
g59
NtRp770
(dp771
g62
(dp772
sg71
g285
sg64
(lp773
g57
(g78
g59
NtRp774
(dp775
g62
(dp776
g82
g83
ssg71
g770
sg64
(lp777
S'script_name'
p778
asbag57
(g78
g59
NtRp779
(dp780
g62
(dp781
g89
g90
ssg71
g770
sg64
(lp782
S':'
asbag57
(g78
g59
NtRp783
(dp784
g62
(dp785
sg71
g770
sg64
(lp786
g57
(g58
g59
NtRp787
(dp788
g62
(dp789
g70
I4
ssg71
g783
sg64
(lp790
S''
asbasbasbag57
(g73
g59
NtRp791
(dp792
g62
(dp793
sg71
g285
sg64
(lp794
g57
(g78
g59
NtRp795
(dp796
g62
(dp797
g82
g83
ssg71
g791
sg64
(lp798
S'server_name'
p799
asbag57
(g78
g59
NtRp800
(dp801
g62
(dp802
g89
g90
ssg71
g791
sg64
(lp803
S':'
asbag57
(g78
g59
NtRp804
(dp805
g62
(dp806
sg71
g791
sg64
(lp807
g57
(g58
g59
NtRp808
(dp809
g62
(dp810
g70
I4
ssg71
g804
sg64
(lp811
S'ayush-HP-430-Notebook-PC'
p812
asbasbasbag57
(g73
g59
NtRp813
(dp814
g62
(dp815
sg71
g285
sg64
(lp816
g57
(g78
g59
NtRp817
(dp818
g62
(dp819
g82
g83
ssg71
g813
sg64
(lp820
S'server_port'
p821
asbag57
(g78
g59
NtRp822
(dp823
g62
(dp824
g89
g90
ssg71
g813
sg64
(lp825
S':'
asbag57
(g78
g59
NtRp826
(dp827
g62
(dp828
sg71
g813
sg64
(lp829
g57
(g58
g59
NtRp830
(dp831
g62
(dp832
g70
I4
ssg71
g826
sg64
(lp833
S'8000'
p834
asbasbasbag57
(g73
g59
NtRp835
(dp836
g62
(dp837
sg71
g285
sg64
(lp838
g57
(g78
g59
NtRp839
(dp840
g62
(dp841
g82
g83
ssg71
g835
sg64
(lp842
S'server_protocol'
p843
asbag57
(g78
g59
NtRp844
(dp845
g62
(dp846
g89
g90
ssg71
g835
sg64
(lp847
S':'
asbag57
(g78
g59
NtRp848
(dp849
g62
(dp850
sg71
g835
sg64
(lp851
g57
(g58
g59
NtRp852
(dp853
g62
(dp854
g70
I4
ssg71
g848
sg64
(lp855
S'HTTP/1.1'
p856
asbasbasbag57
(g73
g59
NtRp857
(dp858
g62
(dp859
sg71
g285
sg64
(lp860
g57
(g78
g59
NtRp861
(dp862
g62
(dp863
g82
g83
ssg71
g857
sg64
(lp864
S'server_software'
p865
asbag57
(g78
g59
NtRp866
(dp867
g62
(dp868
g89
g90
ssg71
g857
sg64
(lp869
S':'
asbag57
(g78
g59
NtRp870
(dp871
g62
(dp872
sg71
g857
sg64
(lp873
g57
(g58
g59
NtRp874
(dp875
g62
(dp876
g70
I4
ssg71
g870
sg64
(lp877
S'Rocket 1.2.4'
p878
asbasbasbag57
(g73
g59
NtRp879
(dp880
g62
(dp881
sg71
g285
sg64
(lp882
g57
(g78
g59
NtRp883
(dp884
g62
(dp885
g82
g83
ssg71
g879
sg64
(lp886
S'web2py_crontype'
p887
asbag57
(g78
g59
NtRp888
(dp889
g62
(dp890
g89
g90
ssg71
g879
sg64
(lp891
S':'
asbag57
(g78
g59
NtRp892
(dp893
g62
(dp894
sg71
g879
sg64
(lp895
g57
(g58
g59
NtRp896
(dp897
g62
(dp898
g70
I4
ssg71
g892
sg64
(lp899
S'hard'
p900
asbasbasbag57
(g73
g59
NtRp901
(dp902
g62
(dp903
sg71
g285
sg64
(lp904
g57
(g78
g59
NtRp905
(dp906
g62
(dp907
g82
g83
ssg71
g901
sg64
(lp908
S'web2py_path'
p909
asbag57
(g78
g59
NtRp910
(dp911
g62
(dp912
g89
g90
ssg71
g901
sg64
(lp913
S':'
asbag57
(g78
g59
NtRp914
(dp915
g62
(dp916
sg71
g901
sg64
(lp917
g57
(g58
g59
NtRp918
(dp919
g62
(dp920
g70
I4
ssg71
g914
sg64
(lp921
g332
asbasbasbag57
(g73
g59
NtRp922
(dp923
g62
(dp924
sg71
g285
sg64
(lp925
g57
(g78
g59
NtRp926
(dp927
g62
(dp928
g82
g83
ssg71
g922
sg64
(lp929
S'web2py_version'
p930
asbag57
(g78
g59
NtRp931
(dp932
g62
(dp933
g89
g90
ssg71
g922
sg64
(lp934
S':'
asbag57
(g78
g59
NtRp935
(dp936
g62
(dp937
sg71
g922
sg64
(lp938
g57
(g58
g59
NtRp939
(dp940
g62
(dp941
g70
I4
ssg71
g935
sg64
(lp942
g57
(g66
g59
NtRp943
(dp944
g62
(dp945
g70
I3
ssg71
Nsg64
(lp946
g57
(g73
g59
NtRp947
(dp948
g62
(dp949
sg71
g943
sg64
(lp950
g57
(g78
g59
NtRp951
(dp952
g62
(dp953
sg71
g947
sg64
(lp954
g57
(g58
g59
NtRp955
(dp956
g62
(dp957
g70
I3
ssg71
g951
sg64
(lp958
S'1'
asbasbasbag57
(g73
g59
NtRp959
(dp960
g62
(dp961
sg71
g943
sg64
(lp962
g57
(g78
g59
NtRp963
(dp964
g62
(dp965
sg71
g959
sg64
(lp966
g57
(g58
g59
NtRp967
(dp968
g62
(dp969
g70
I3
ssg71
g963
sg64
(lp970
S'99'
p971
asbasbasbag57
(g73
g59
NtRp972
(dp973
g62
(dp974
sg71
g943
sg64
(lp975
g57
(g78
g59
NtRp976
(dp977
g62
(dp978
sg71
g972
sg64
(lp979
g57
(g58
g59
NtRp980
(dp981
g62
(dp982
g70
I3
ssg71
g976
sg64
(lp983
S'7'
asbasbasbag57
(g73
g59
NtRp984
(dp985
g62
(dp986
sg71
g943
sg64
(lp987
g57
(g78
g59
NtRp988
(dp989
g62
(dp990
sg71
g984
sg64
(lp991
g57
(g58
g59
NtRp992
(dp993
g62
(dp994
g70
I3
ssg71
g988
sg64
(lp995
S'datetime.datetime(2012, 3, 4, 22, 12, 8)'
p996
asbasbasbag57
(g73
g59
NtRp997
(dp998
g62
(dp999
sg71
g943
sg64
(lp1000
g57
(g78
g59
NtRp1001
(dp1002
g62
(dp1003
sg71
g997
sg64
(lp1004
g57
(g58
g59
NtRp1005
(dp1006
g62
(dp1007
g70
I3
ssg71
g1001
sg64
(lp1008
S'stable'
p1009
asbasbasbasbasbasbasbag57
(g73
g59
NtRp1010
(dp1011
g62
(dp1012
sg71
g285
sg64
(lp1013
g57
(g78
g59
NtRp1014
(dp1015
g62
(dp1016
g82
g83
ssg71
g1010
sg64
(lp1017
S'wsgi_errors'
p1018
asbag57
(g78
g59
NtRp1019
(dp1020
g62
(dp1021
g89
g90
ssg71
g1010
sg64
(lp1022
S':'
asbag57
(g78
g59
NtRp1023
(dp1024
g62
(dp1025
sg71
g1010
sg64
(lp1026
g57
(g58
g59
NtRp1027
(dp1028
g62
(dp1029
g70
I4
ssg71
g1023
sg64
(lp1030
S"<open file '<stderr>', mode 'w' at 0xb754f0d0>"
p1031
asbasbasbag57
(g73
g59
NtRp1032
(dp1033
g62
(dp1034
sg71
g285
sg64
(lp1035
g57
(g78
g59
NtRp1036
(dp1037
g62
(dp1038
g82
g83
ssg71
g1032
sg64
(lp1039
S'wsgi_file_wrapper'
p1040
asbag57
(g78
g59
NtRp1041
(dp1042
g62
(dp1043
g89
g90
ssg71
g1032
sg64
(lp1044
S':'
asbag57
(g78
g59
NtRp1045
(dp1046
g62
(dp1047
sg71
g1032
sg64
(lp1048
g57
(g58
g59
NtRp1049
(dp1050
g62
(dp1051
g70
I4
ssg71
g1045
sg64
(lp1052
S'<class wsgiref.util.FileWrapper at 0xb6a61cec>'
p1053
asbasbasbag57
(g73
g59
NtRp1054
(dp1055
g62
(dp1056
sg71
g285
sg64
(lp1057
g57
(g78
g59
NtRp1058
(dp1059
g62
(dp1060
g82
g83
ssg71
g1054
sg64
(lp1061
S'wsgi_input'
p1062
asbag57
(g78
g59
NtRp1063
(dp1064
g62
(dp1065
g89
g90
ssg71
g1054
sg64
(lp1066
S':'
asbag57
(g78
g59
NtRp1067
(dp1068
g62
(dp1069
sg71
g1054
sg64
(lp1070
g57
(g58
g59
NtRp1071
(dp1072
g62
(dp1073
g70
I4
ssg71
g1067
sg64
(lp1074
S'<socket._fileobject object at 0xb10325ac>'
p1075
asbasbasbag57
(g73
g59
NtRp1076
(dp1077
g62
(dp1078
sg71
g285
sg64
(lp1079
g57
(g78
g59
NtRp1080
(dp1081
g62
(dp1082
g82
g83
ssg71
g1076
sg64
(lp1083
S'wsgi_multiprocess'
p1084
asbag57
(g78
g59
NtRp1085
(dp1086
g62
(dp1087
g89
g90
ssg71
g1076
sg64
(lp1088
S':'
asbag57
(g78
g59
NtRp1089
(dp1090
g62
(dp1091
sg71
g1076
sg64
(lp1092
g57
(g58
g59
NtRp1093
(dp1094
g62
(dp1095
g70
I4
ssg71
g1089
sg64
(lp1096
g100
asbasbasbag57
(g73
g59
NtRp1097
(dp1098
g62
(dp1099
sg71
g285
sg64
(lp1100
g57
(g78
g59
NtRp1101
(dp1102
g62
(dp1103
g82
g83
ssg71
g1097
sg64
(lp1104
S'wsgi_multithread'
p1105
asbag57
(g78
g59
NtRp1106
(dp1107
g62
(dp1108
g89
g90
ssg71
g1097
sg64
(lp1109
S':'
asbag57
(g78
g59
NtRp1110
(dp1111
g62
(dp1112
sg71
g1097
sg64
(lp1113
g57
(g58
g59
NtRp1114
(dp1115
g62
(dp1116
g70
I4
ssg71
g1110
sg64
(lp1117
S'True'
p1118
asbasbasbag57
(g73
g59
NtRp1119
(dp1120
g62
(dp1121
sg71
g285
sg64
(lp1122
g57
(g78
g59
NtRp1123
(dp1124
g62
(dp1125
g82
g83
ssg71
g1119
sg64
(lp1126
S'wsgi_run_once'
p1127
asbag57
(g78
g59
NtRp1128
(dp1129
g62
(dp1130
g89
g90
ssg71
g1119
sg64
(lp1131
S':'
asbag57
(g78
g59
NtRp1132
(dp1133
g62
(dp1134
sg71
g1119
sg64
(lp1135
g57
(g58
g59
NtRp1136
(dp1137
g62
(dp1138
g70
I4
ssg71
g1132
sg64
(lp1139
g100
asbasbasbag57
(g73
g59
NtRp1140
(dp1141
g62
(dp1142
sg71
g285
sg64
(lp1143
g57
(g78
g59
NtRp1144
(dp1145
g62
(dp1146
g82
g83
ssg71
g1140
sg64
(lp1147
S'wsgi_url_scheme'
p1148
asbag57
(g78
g59
NtRp1149
(dp1150
g62
(dp1151
g89
g90
ssg71
g1140
sg64
(lp1152
S':'
asbag57
(g78
g59
NtRp1153
(dp1154
g62
(dp1155
sg71
g1140
sg64
(lp1156
g57
(g58
g59
NtRp1157
(dp1158
g62
(dp1159
g70
I4
ssg71
g1153
sg64
(lp1160
S'http'
p1161
asbasbasbag57
(g73
g59
NtRp1162
(dp1163
g62
(dp1164
sg71
g285
sg64
(lp1165
g57
(g78
g59
NtRp1166
(dp1167
g62
(dp1168
g82
g83
ssg71
g1162
sg64
(lp1169
S'wsgi_version'
p1170
asbag57
(g78
g59
NtRp1171
(dp1172
g62
(dp1173
g89
g90
ssg71
g1162
sg64
(lp1174
S':'
asbag57
(g78
g59
NtRp1175
(dp1176
g62
(dp1177
sg71
g1162
sg64
(lp1178
g57
(g58
g59
NtRp1179
(dp1180
g62
(dp1181
g70
I4
ssg71
g1175
sg64
(lp1182
g57
(g66
g59
NtRp1183
(dp1184
g62
(dp1185
g70
I3
ssg71
Nsg64
(lp1186
g57
(g73
g59
NtRp1187
(dp1188
g62
(dp1189
sg71
g1183
sg64
(lp1190
g57
(g78
g59
NtRp1191
(dp1192
g62
(dp1193
sg71
g1187
sg64
(lp1194
g57
(g58
g59
NtRp1195
(dp1196
g62
(dp1197
g70
I3
ssg71
g1191
sg64
(lp1198
S'1'
asbasbasbag57
(g73
g59
NtRp1199
(dp1200
g62
(dp1201
sg71
g1183
sg64
(lp1202
g57
(g78
g59
NtRp1203
(dp1204
g62
(dp1205
sg71
g1199
sg64
(lp1206
g57
(g58
g59
NtRp1207
(dp1208
g62
(dp1209
g70
I3
ssg71
g1203
sg64
(lp1210
S'0'
asbasbasbasbasbasbasbasbasbasbasbag57
(g73
g59
NtRp1211
(dp1212
g62
(dp1213
sg71
g67
sg64
(lp1214
g57
(g78
g59
NtRp1215
(dp1216
g62
(dp1217
g82
g83
ssg71
g1211
sg64
(lp1218
S'extension'
p1219
asbag57
(g78
g59
NtRp1220
(dp1221
g62
(dp1222
g89
g90
ssg71
g1211
sg64
(lp1223
S':'
asbag57
(g78
g59
NtRp1224
(dp1225
g62
(dp1226
sg71
g1211
sg64
(lp1227
g57
(g58
g59
NtRp1228
(dp1229
g62
(dp1230
g70
I5
ssg71
g1224
sg64
(lp1231
S'html'
p1232
asbasbasbag57
(g73
g59
NtRp1233
(dp1234
g62
(dp1235
sg71
g67
sg64
(lp1236
g57
(g78
g59
NtRp1237
(dp1238
g62
(dp1239
g82
g83
ssg71
g1233
sg64
(lp1240
S'folder'
p1241
asbag57
(g78
g59
NtRp1242
(dp1243
g62
(dp1244
g89
g90
ssg71
g1233
sg64
(lp1245
S':'
asbag57
(g78
g59
NtRp1246
(dp1247
g62
(dp1248
sg71
g1233
sg64
(lp1249
g57
(g58
g59
NtRp1250
(dp1251
g62
(dp1252
g70
I5
ssg71
g1246
sg64
(lp1253
S'/home/ayush/web2py/applications/admin/'
p1254
asbasbasbag57
(g73
g59
NtRp1255
(dp1256
g62
(dp1257
sg71
g67
sg64
(lp1258
g57
(g78
g59
NtRp1259
(dp1260
g62
(dp1261
g82
g83
ssg71
g1255
sg64
(lp1262
S'function'
p1263
asbag57
(g78
g59
NtRp1264
(dp1265
g62
(dp1266
g89
g90
ssg71
g1255
sg64
(lp1267
S':'
asbag57
(g78
g59
NtRp1268
(dp1269
g62
(dp1270
sg71
g1255
sg64
(lp1271
g57
(g58
g59
NtRp1272
(dp1273
g62
(dp1274
g70
I5
ssg71
g1268
sg64
(lp1275
S'ticket'
p1276
asbasbasbag57
(g73
g59
NtRp1277
(dp1278
g62
(dp1279
sg71
g67
sg64
(lp1280
g57
(g78
g59
NtRp1281
(dp1282
g62
(dp1283
g82
g83
ssg71
g1277
sg64
(lp1284
S'get_vars'
p1285
asbag57
(g78
g59
NtRp1286
(dp1287
g62
(dp1288
g89
g90
ssg71
g1277
sg64
(lp1289
S':'
asbag57
(g78
g59
NtRp1290
(dp1291
g62
(dp1292
sg71
g1277
sg64
(lp1293
g57
(g58
g59
NtRp1294
(dp1295
g62
(dp1296
g70
I5
ssg71
g1290
sg64
(lp1297
g57
(g66
g59
NtRp1298
(dp1299
g62
(dp1300
g70
I4
ssg71
Nsg64
(lp1301
sbasbasbasbag57
(g73
g59
NtRp1302
(dp1303
g62
(dp1304
sg71
g67
sg64
(lp1305
g57
(g78
g59
NtRp1306
(dp1307
g62
(dp1308
g82
g83
ssg71
g1302
sg64
(lp1309
S'global_settings'
p1310
asbag57
(g78
g59
NtRp1311
(dp1312
g62
(dp1313
g89
g90
ssg71
g1302
sg64
(lp1314
S':'
asbag57
(g78
g59
NtRp1315
(dp1316
g62
(dp1317
sg71
g1302
sg64
(lp1318
g57
(g58
g59
NtRp1319
(dp1320
g62
(dp1321
g70
I5
ssg71
g1315
sg64
(lp1322
g57
(g66
g59
NtRp1323
(dp1324
g62
(dp1325
g70
I4
ssg71
Nsg64
(lp1326
g57
(g73
g59
NtRp1327
(dp1328
g62
(dp1329
sg71
g1323
sg64
(lp1330
g57
(g78
g59
NtRp1331
(dp1332
g62
(dp1333
g82
g83
ssg71
g1327
sg64
(lp1334
g297
asbag57
(g78
g59
NtRp1335
(dp1336
g62
(dp1337
g89
g90
ssg71
g1327
sg64
(lp1338
S':'
asbag57
(g78
g59
NtRp1339
(dp1340
g62
(dp1341
sg71
g1327
sg64
(lp1342
g57
(g58
g59
NtRp1343
(dp1344
g62
(dp1345
g70
I4
ssg71
g1339
sg64
(lp1346
S"set(['/home/ayush/web2py/applications/admin/', '/home/ayush/web2py/applications/welcome/'])"
p1347
asbasbasbag57
(g73
g59
NtRp1348
(dp1349
g62
(dp1350
sg71
g1323
sg64
(lp1351
g57
(g78
g59
NtRp1352
(dp1353
g62
(dp1354
g82
g83
ssg71
g1348
sg64
(lp1355
g319
asbag57
(g78
g59
NtRp1356
(dp1357
g62
(dp1358
g89
g90
ssg71
g1348
sg64
(lp1359
S':'
asbag57
(g78
g59
NtRp1360
(dp1361
g62
(dp1362
sg71
g1348
sg64
(lp1363
g57
(g58
g59
NtRp1364
(dp1365
g62
(dp1366
g70
I4
ssg71
g1360
sg64
(lp1367
g332
asbasbasbag57
(g73
g59
NtRp1368
(dp1369
g62
(dp1370
sg71
g1323
sg64
(lp1371
g57
(g78
g59
NtRp1372
(dp1373
g62
(dp1374
g82
g83
ssg71
g1368
sg64
(lp1375
g341
asbag57
(g78
g59
NtRp1376
(dp1377
g62
(dp1378
g89
g90
ssg71
g1368
sg64
(lp1379
S':'
asbag57
(g78
g59
NtRp1380
(dp1381
g62
(dp1382
sg71
g1368
sg64
(lp1383
g57
(g58
g59
NtRp1384
(dp1385
g62
(dp1386
g70
I4
ssg71
g1380
sg64
(lp1387
g57
(g66
g59
NtRp1388
(dp1389
g62
(dp1390
g70
I3
ssg71
Nsg64
(lp1391
sbasbasbasbag57
(g73
g59
NtRp1392
(dp1393
g62
(dp1394
sg71
g1323
sg64
(lp1395
g57
(g78
g59
NtRp1396
(dp1397
g62
(dp1398
g82
g83
ssg71
g1392
sg64
(lp1399
g366
asbag57
(g78
g59
NtRp1400
(dp1401
g62
(dp1402
g89
g90
ssg71
g1392
sg64
(lp1403
S':'
asbag57
(g78
g59
NtRp1404
(dp1405
g62
(dp1406
sg71
g1392
sg64
(lp1407
g57
(g58
g59
NtRp1408
(dp1409
g62
(dp1410
g70
I4
ssg71
g1404
sg64
(lp1411
S"<Values at 0xb718440c: {'verbose': False, 'ip': '127.0.0.1', 'shutdown_timeout': 5, 'taskbar': False, 'nocron': False, 'pid_filename': 'httpserver.pid', 'maxthreads': None, 'softcron': False, 'server_name': 'ayush-HP-430-Notebook-PC', 'bpython': False, 'nogui': False, 'port': 8000, 'extcron': False, 'debuglevel': 30, 'test': None, 'folder': '/home/ayush/web2py', 'config': '', 'import_models': False, 'winservice': '', 'shell': None, 'run': '', 'log_filename': 'httpserver.log', 'args': [''], 'socket_timeout': 5, 'ssl_ca_certificate': None, 'scheduler': None, 'profiler_filename': None, 'ssl_private_key': '', 'password': '<ask>', 'request_queue_size': 5, 'ssl_certificate': '', 'cronjob': False, 'numthreads': None, 'quiet': False, 'interfaces': None, 'minthreads': None, 'timeout': 10, 'plain': False, 'nobanner': False}>"
p1412
asbasbasbag57
(g73
g59
NtRp1413
(dp1414
g62
(dp1415
sg71
g1323
sg64
(lp1416
g57
(g78
g59
NtRp1417
(dp1418
g62
(dp1419
g82
g83
ssg71
g1413
sg64
(lp1420
g388
asbag57
(g78
g59
NtRp1421
(dp1422
g62
(dp1423
g89
g90
ssg71
g1413
sg64
(lp1424
S':'
asbag57
(g78
g59
NtRp1425
(dp1426
g62
(dp1427
sg71
g1413
sg64
(lp1428
g57
(g58
g59
NtRp1429
(dp1430
g62
(dp1431
g70
I4
ssg71
g1425
sg64
(lp1432
S'set([])'
p1433
asbasbasbag57
(g73
g59
NtRp1434
(dp1435
g62
(dp1436
sg71
g1323
sg64
(lp1437
g57
(g78
g59
NtRp1438
(dp1439
g62
(dp1440
g82
g83
ssg71
g1434
sg64
(lp1441
g410
asbag57
(g78
g59
NtRp1442
(dp1443
g62
(dp1444
g89
g90
ssg71
g1434
sg64
(lp1445
S':'
asbag57
(g78
g59
NtRp1446
(dp1447
g62
(dp1448
sg71
g1434
sg64
(lp1449
g57
(g58
g59
NtRp1450
(dp1451
g62
(dp1452
g70
I4
ssg71
g1446
sg64
(lp1453
g100
asbasbasbag57
(g73
g59
NtRp1454
(dp1455
g62
(dp1456
sg71
g1323
sg64
(lp1457
g57
(g78
g59
NtRp1458
(dp1459
g62
(dp1460
g82
g83
ssg71
g1454
sg64
(lp1461
g431
asbag57
(g78
g59
NtRp1462
(dp1463
g62
(dp1464
g89
g90
ssg71
g1454
sg64
(lp1465
S':'
asbag57
(g78
g59
NtRp1466
(dp1467
g62
(dp1468
sg71
g1454
sg64
(lp1469
g57
(g58
g59
NtRp1470
(dp1471
g62
(dp1472
g70
I4
ssg71
g1466
sg64
(lp1473
g444
asbasbasbag57
(g73
g59
NtRp1474
(dp1475
g62
(dp1476
sg71
g1323
sg64
(lp1477
g57
(g78
g59
NtRp1478
(dp1479
g62
(dp1480
g82
g83
ssg71
g1474
sg64
(lp1481
g628
asbag57
(g78
g59
NtRp1482
(dp1483
g62
(dp1484
g89
g90
ssg71
g1474
sg64
(lp1485
S':'
asbag57
(g78
g59
NtRp1486
(dp1487
g62
(dp1488
sg71
g1474
sg64
(lp1489
g57
(g58
g59
NtRp1490
(dp1491
g62
(dp1492
g70
I4
ssg71
g1486
sg64
(lp1493
g100
asbasbasbag57
(g73
g59
NtRp1494
(dp1495
g62
(dp1496
sg71
g1323
sg64
(lp1497
g57
(g78
g59
NtRp1498
(dp1499
g62
(dp1500
g82
g83
ssg71
g1494
sg64
(lp1501
g649
asbag57
(g78
g59
NtRp1502
(dp1503
g62
(dp1504
g89
g90
ssg71
g1494
sg64
(lp1505
S':'
asbag57
(g78
g59
NtRp1506
(dp1507
g62
(dp1508
sg71
g1494
sg64
(lp1509
g57
(g58
g59
NtRp1510
(dp1511
g62
(dp1512
g70
I4
ssg71
g1506
sg64
(lp1513
g100
asbasbasbag57
(g73
g59
NtRp1514
(dp1515
g62
(dp1516
sg71
g1323
sg64
(lp1517
g57
(g78
g59
NtRp1518
(dp1519
g62
(dp1520
g82
g83
ssg71
g1514
sg64
(lp1521
g887
asbag57
(g78
g59
NtRp1522
(dp1523
g62
(dp1524
g89
g90
ssg71
g1514
sg64
(lp1525
S':'
asbag57
(g78
g59
NtRp1526
(dp1527
g62
(dp1528
sg71
g1514
sg64
(lp1529
g57
(g58
g59
NtRp1530
(dp1531
g62
(dp1532
g70
I4
ssg71
g1526
sg64
(lp1533
g900
asbasbasbag57
(g73
g59
NtRp1534
(dp1535
g62
(dp1536
sg71
g1323
sg64
(lp1537
g57
(g78
g59
NtRp1538
(dp1539
g62
(dp1540
g82
g83
ssg71
g1534
sg64
(lp1541
g930
asbag57
(g78
g59
NtRp1542
(dp1543
g62
(dp1544
g89
g90
ssg71
g1534
sg64
(lp1545
S':'
asbag57
(g78
g59
NtRp1546
(dp1547
g62
(dp1548
sg71
g1534
sg64
(lp1549
g57
(g58
g59
NtRp1550
(dp1551
g62
(dp1552
g70
I4
ssg71
g1546
sg64
(lp1553
g57
(g66
g59
NtRp1554
(dp1555
g62
(dp1556
g70
I3
ssg71
Nsg64
(lp1557
g57
(g73
g59
NtRp1558
(dp1559
g62
(dp1560
sg71
g1554
sg64
(lp1561
g57
(g78
g59
NtRp1562
(dp1563
g62
(dp1564
sg71
g1558
sg64
(lp1565
g57
(g58
g59
NtRp1566
(dp1567
g62
(dp1568
g70
I3
ssg71
g1562
sg64
(lp1569
S'1'
asbasbasbag57
(g73
g59
NtRp1570
(dp1571
g62
(dp1572
sg71
g1554
sg64
(lp1573
g57
(g78
g59
NtRp1574
(dp1575
g62
(dp1576
sg71
g1570
sg64
(lp1577
g57
(g58
g59
NtRp1578
(dp1579
g62
(dp1580
g70
I3
ssg71
g1574
sg64
(lp1581
S'99'
p1582
asbasbasbag57
(g73
g59
NtRp1583
(dp1584
g62
(dp1585
sg71
g1554
sg64
(lp1586
g57
(g78
g59
NtRp1587
(dp1588
g62
(dp1589
sg71
g1583
sg64
(lp1590
g57
(g58
g59
NtRp1591
(dp1592
g62
(dp1593
g70
I3
ssg71
g1587
sg64
(lp1594
S'7'
asbasbasbag57
(g73
g59
NtRp1595
(dp1596
g62
(dp1597
sg71
g1554
sg64
(lp1598
g57
(g78
g59
NtRp1599
(dp1600
g62
(dp1601
sg71
g1595
sg64
(lp1602
g57
(g58
g59
NtRp1603
(dp1604
g62
(dp1605
g70
I3
ssg71
g1599
sg64
(lp1606
S'datetime.datetime(2012, 3, 4, 22, 12, 8)'
p1607
asbasbasbag57
(g73
g59
NtRp1608
(dp1609
g62
(dp1610
sg71
g1554
sg64
(lp1611
g57
(g78
g59
NtRp1612
(dp1613
g62
(dp1614
sg71
g1608
sg64
(lp1615
g57
(g58
g59
NtRp1616
(dp1617
g62
(dp1618
g70
I3
ssg71
g1612
sg64
(lp1619
g1009
asbasbasbasbasbasbasbasbasbasbasbag57
(g73
g59
NtRp1620
(dp1621
g62
(dp1622
sg71
g67
sg64
(lp1623
g57
(g78
g59
NtRp1624
(dp1625
g62
(dp1626
g82
g83
ssg71
g1620
sg64
(lp1627
S'is_https'
p1628
asbag57
(g78
g59
NtRp1629
(dp1630
g62
(dp1631
g89
g90
ssg71
g1620
sg64
(lp1632
S':'
asbag57
(g78
g59
NtRp1633
(dp1634
g62
(dp1635
sg71
g1620
sg64
(lp1636
g57
(g58
g59
NtRp1637
(dp1638
g62
(dp1639
g70
I5
ssg71
g1633
sg64
(lp1640
g100
asbasbasbag57
(g73
g59
NtRp1641
(dp1642
g62
(dp1643
sg71
g67
sg64
(lp1644
g57
(g78
g59
NtRp1645
(dp1646
g62
(dp1647
g82
g83
ssg71
g1641
sg64
(lp1648
S'is_local'
p1649
asbag57
(g78
g59
NtRp1650
(dp1651
g62
(dp1652
g89
g90
ssg71
g1641
sg64
(lp1653
S':'
asbag57
(g78
g59
NtRp1654
(dp1655
g62
(dp1656
sg71
g1641
sg64
(lp1657
g57
(g58
g59
NtRp1658
(dp1659
g62
(dp1660
g70
I5
ssg71
g1654
sg64
(lp1661
g1118
asbasbasbag57
(g73
g59
NtRp1662
(dp1663
g62
(dp1664
sg71
g67
sg64
(lp1665
g57
(g78
g59
NtRp1666
(dp1667
g62
(dp1668
g82
g83
ssg71
g1662
sg64
(lp1669
S'is_restful'
p1670
asbag57
(g78
g59
NtRp1671
(dp1672
g62
(dp1673
g89
g90
ssg71
g1662
sg64
(lp1674
S':'
asbag57
(g78
g59
NtRp1675
(dp1676
g62
(dp1677
sg71
g1662
sg64
(lp1678
g57
(g58
g59
NtRp1679
(dp1680
g62
(dp1681
g70
I5
ssg71
g1675
sg64
(lp1682
g100
asbasbasbag57
(g73
g59
NtRp1683
(dp1684
g62
(dp1685
sg71
g67
sg64
(lp1686
g57
(g78
g59
NtRp1687
(dp1688
g62
(dp1689
g82
g83
ssg71
g1683
sg64
(lp1690
S'now'
p1691
asbag57
(g78
g59
NtRp1692
(dp1693
g62
(dp1694
g89
g90
ssg71
g1683
sg64
(lp1695
S':'
asbag57
(g78
g59
NtRp1696
(dp1697
g62
(dp1698
sg71
g1683
sg64
(lp1699
g57
(g58
g59
NtRp1700
(dp1701
g62
(dp1702
g70
I5
ssg71
g1696
sg64
(lp1703
S'datetime.datetime(2017, 1, 7, 21, 55, 37, 875982)'
p1704
asbasbasbag57
(g73
g59
NtRp1705
(dp1706
g62
(dp1707
sg71
g67
sg64
(lp1708
g57
(g78
g59
NtRp1709
(dp1710
g62
(dp1711
g82
g83
ssg71
g1705
sg64
(lp1712
S'post_vars'
p1713
asbag57
(g78
g59
NtRp1714
(dp1715
g62
(dp1716
g89
g90
ssg71
g1705
sg64
(lp1717
S':'
asbag57
(g78
g59
NtRp1718
(dp1719
g62
(dp1720
sg71
g1705
sg64
(lp1721
g57
(g58
g59
NtRp1722
(dp1723
g62
(dp1724
g70
I5
ssg71
g1718
sg64
(lp1725
g57
(g66
g59
NtRp1726
(dp1727
g62
(dp1728
g70
I4
ssg71
Nsg64
(lp1729
sbasbasbasbag57
(g73
g59
NtRp1730
(dp1731
g62
(dp1732
sg71
g67
sg64
(lp1733
g57
(g78
g59
NtRp1734
(dp1735
g62
(dp1736
g82
g83
ssg71
g1730
sg64
(lp1737
S'raw_args'
p1738
asbag57
(g78
g59
NtRp1739
(dp1740
g62
(dp1741
g89
g90
ssg71
g1730
sg64
(lp1742
S':'
asbag57
(g78
g59
NtRp1743
(dp1744
g62
(dp1745
sg71
g1730
sg64
(lp1746
g57
(g58
g59
NtRp1747
(dp1748
g62
(dp1749
g70
I5
ssg71
g1743
sg64
(lp1750
S'welcome/127.0.0.1.2017-01-07.21-55-32.aa4c3cbc-e438-424e-93c3-d3e3891a79b6'
p1751
asbasbasbag57
(g73
g59
NtRp1752
(dp1753
g62
(dp1754
sg71
g67
sg64
(lp1755
g57
(g78
g59
NtRp1756
(dp1757
g62
(dp1758
g82
g83
ssg71
g1752
sg64
(lp1759
S'url'
p1760
asbag57
(g78
g59
NtRp1761
(dp1762
g62
(dp1763
g89
g90
ssg71
g1752
sg64
(lp1764
S':'
asbag57
(g78
g59
NtRp1765
(dp1766
g62
(dp1767
sg71
g1752
sg64
(lp1768
g57
(g58
g59
NtRp1769
(dp1770
g62
(dp1771
g70
I5
ssg71
g1765
sg64
(lp1772
S'/admin/default/ticket/welcome/127.0.0.1.2017-01-07.21-55-32.aa4c3cbc-e438-424e-93c3-d3e3891a79b6'
p1773
asbasbasbag57
(g73
g59
NtRp1774
(dp1775
g62
(dp1776
sg71
g67
sg64
(lp1777
g57
(g78
g59
NtRp1778
(dp1779
g62
(dp1780
g82
g83
ssg71
g1774
sg64
(lp1781
S'utcnow'
p1782
asbag57
(g78
g59
NtRp1783
(dp1784
g62
(dp1785
g89
g90
ssg71
g1774
sg64
(lp1786
S':'
asbag57
(g78
g59
NtRp1787
(dp1788
g62
(dp1789
sg71
g1774
sg64
(lp1790
g57
(g58
g59
NtRp1791
(dp1792
g62
(dp1793
g70
I5
ssg71
g1787
sg64
(lp1794
S'datetime.datetime(2017, 1, 7, 16, 25, 37, 876009)'
p1795
asbasbasbag57
(g73
g59
NtRp1796
(dp1797
g62
(dp1798
sg71
g67
sg64
(lp1799
g57
(g78
g59
NtRp1800
(dp1801
g62
(dp1802
g82
g83
ssg71
g1796
sg64
(lp1803
S'uuid'
p1804
asbag57
(g78
g59
NtRp1805
(dp1806
g62
(dp1807
g89
g90
ssg71
g1796
sg64
(lp1808
S':'
asbag57
(g78
g59
NtRp1809
(dp1810
g62
(dp1811
sg71
g1796
sg64
(lp1812
g57
(g58
g59
NtRp1813
(dp1814
g62
(dp1815
g70
I5
ssg71
g1809
sg64
(lp1816
S'admin/127.0.0.1.2017-01-07.21-55-37.40e4c7cd-8346-4263-9473-cf1ad529c4d3'
p1817
asbasbasbag57
(g73
g59
NtRp1818
(dp1819
g62
(dp1820
sg71
g67
sg64
(lp1821
g57
(g78
g59
NtRp1822
(dp1823
g62
(dp1824
g82
g83
ssg71
g1818
sg64
(lp1825
S'vars'
p1826
asbag57
(g78
g59
NtRp1827
(dp1828
g62
(dp1829
g89
g90
ssg71
g1818
sg64
(lp1830
S':'
asbag57
(g78
g59
NtRp1831
(dp1832
g62
(dp1833
sg71
g1818
sg64
(lp1834
g57
(g58
g59
NtRp1835
(dp1836
g62
(dp1837
g70
I5
ssg71
g1831
sg64
(lp1838
g57
(g66
g59
NtRp1839
(dp1840
g62
(dp1841
g70
I4
ssg71
Nsg64
(lp1842
sbasbasbasbag57
(g73
g59
NtRp1843
(dp1844
g62
(dp1845
sg71
g67
sg64
(lp1846
g57
(g78
g59
NtRp1847
(dp1848
g62
(dp1849
g82
g83
ssg71
g1843
sg64
(lp1850
S'wsgi'
p1851
asbag57
(g78
g59
NtRp1852
(dp1853
g62
(dp1854
g89
g90
ssg71
g1843
sg64
(lp1855
S':'
asbag57
(g78
g59
NtRp1856
(dp1857
g62
(dp1858
sg71
g1843
sg64
(lp1859
g57
(g58
g59
NtRp1860
(dp1861
g62
(dp1862
g70
I5
ssg71
g1856
sg64
(lp1863
g57
(g66
g59
NtRp1864
(dp1865
g62
(dp1866
g70
I4
ssg71
Nsg64
(lp1867
g57
(g73
g59
NtRp1868
(dp1869
g62
(dp1870
sg71
g1864
sg64
(lp1871
g57
(g78
g59
NtRp1872
(dp1873
g62
(dp1874
g82
g83
ssg71
g1868
sg64
(lp1875
S'environ'
p1876
asbag57
(g78
g59
NtRp1877
(dp1878
g62
(dp1879
g89
g90
ssg71
g1868
sg64
(lp1880
S':'
asbag57
(g78
g59
NtRp1881
(dp1882
g62
(dp1883
sg71
g1868
sg64
(lp1884
g57
(g58
g59
NtRp1885
(dp1886
g62
(dp1887
g70
I4
ssg71
g1881
sg64
(lp1888
g57
(g66
g59
NtRp1889
(dp1890
g62
(dp1891
g70
I3
ssg71
Nsg64
(lp1892
g57
(g73
g59
NtRp1893
(dp1894
g62
(dp1895
sg71
g1889
sg64
(lp1896
g57
(g78
g59
NtRp1897
(dp1898
g62
(dp1899
g82
g83
ssg71
g1893
sg64
(lp1900
S'HTTP_ACCEPT'
p1901
asbag57
(g78
g59
NtRp1902
(dp1903
g62
(dp1904
g89
g90
ssg71
g1893
sg64
(lp1905
S':'
asbag57
(g78
g59
NtRp1906
(dp1907
g62
(dp1908
sg71
g1893
sg64
(lp1909
g57
(g58
g59
NtRp1910
(dp1911
g62
(dp1912
g70
I3
ssg71
g1906
sg64
(lp1913
g466
asbasbasbag57
(g73
g59
NtRp1914
(dp1915
g62
(dp1916
sg71
g1889
sg64
(lp1917
g57
(g78
g59
NtRp1918
(dp1919
g62
(dp1920
g82
g83
ssg71
g1914
sg64
(lp1921
S'HTTP_ACCEPT_ENCODING'
p1922
asbag57
(g78
g59
NtRp1923
(dp1924
g62
(dp1925
g89
g90
ssg71
g1914
sg64
(lp1926
S':'
asbag57
(g78
g59
NtRp1927
(dp1928
g62
(dp1929
sg71
g1914
sg64
(lp1930
g57
(g58
g59
NtRp1931
(dp1932
g62
(dp1933
g70
I3
ssg71
g1927
sg64
(lp1934
g488
asbasbasbag57
(g73
g59
NtRp1935
(dp1936
g62
(dp1937
sg71
g1889
sg64
(lp1938
g57
(g78
g59
NtRp1939
(dp1940
g62
(dp1941
g82
g83
ssg71
g1935
sg64
(lp1942
S'HTTP_ACCEPT_LANGUAGE'
p1943
asbag57
(g78
g59
NtRp1944
(dp1945
g62
(dp1946
g89
g90
ssg71
g1935
sg64
(lp1947
S':'
asbag57
(g78
g59
NtRp1948
(dp1949
g62
(dp1950
sg71
g1935
sg64
(lp1951
g57
(g58
g59
NtRp1952
(dp1953
g62
(dp1954
g70
I3
ssg71
g1948
sg64
(lp1955
g510
asbasbasbag57
(g73
g59
NtRp1956
(dp1957
g62
(dp1958
sg71
g1889
sg64
(lp1959
g57
(g78
g59
NtRp1960
(dp1961
g62
(dp1962
g82
g83
ssg71
g1956
sg64
(lp1963
S'HTTP_CONNECTION'
p1964
asbag57
(g78
g59
NtRp1965
(dp1966
g62
(dp1967
g89
g90
ssg71
g1956
sg64
(lp1968
S':'
asbag57
(g78
g59
NtRp1969
(dp1970
g62
(dp1971
sg71
g1956
sg64
(lp1972
g57
(g58
g59
NtRp1973
(dp1974
g62
(dp1975
g70
I3
ssg71
g1969
sg64
(lp1976
g532
asbasbasbag57
(g73
g59
NtRp1977
(dp1978
g62
(dp1979
sg71
g1889
sg64
(lp1980
g57
(g78
g59
NtRp1981
(dp1982
g62
(dp1983
g82
g83
ssg71
g1977
sg64
(lp1984
S'HTTP_HOST'
p1985
asbag57
(g78
g59
NtRp1986
(dp1987
g62
(dp1988
g89
g90
ssg71
g1977
sg64
(lp1989
S':'
asbag57
(g78
g59
NtRp1990
(dp1991
g62
(dp1992
sg71
g1977
sg64
(lp1993
g57
(g58
g59
NtRp1994
(dp1995
g62
(dp1996
g70
I3
ssg71
g1990
sg64
(lp1997
g554
asbasbasbag57
(g73
g59
NtRp1998
(dp1999
g62
(dp2000
sg71
g1889
sg64
(lp2001
g57
(g78
g59
NtRp2002
(dp2003
g62
(dp2004
g82
g83
ssg71
g1998
sg64
(lp2005
S'HTTP_REFERER'
p2006
asbag57
(g78
g59
NtRp2007
(dp2008
g62
(dp2009
g89
g90
ssg71
g1998
sg64
(lp2010
S':'
asbag57
(g78
g59
NtRp2011
(dp2012
g62
(dp2013
sg71
g1998
sg64
(lp2014
g57
(g58
g59
NtRp2015
(dp2016
g62
(dp2017
g70
I3
ssg71
g2011
sg64
(lp2018
g576
asbasbasbag57
(g73
g59
NtRp2019
(dp2020
g62
(dp2021
sg71
g1889
sg64
(lp2022
g57
(g78
g59
NtRp2023
(dp2024
g62
(dp2025
g82
g83
ssg71
g2019
sg64
(lp2026
S'HTTP_UPGRADE_INSECURE_REQUESTS'
p2027
asbag57
(g78
g59
NtRp2028
(dp2029
g62
(dp2030
g89
g90
ssg71
g2019
sg64
(lp2031
S':'
asbag57
(g78
g59
NtRp2032
(dp2033
g62
(dp2034
sg71
g2019
sg64
(lp2035
g57
(g58
g59
NtRp2036
(dp2037
g62
(dp2038
g70
I3
ssg71
g2032
sg64
(lp2039
S'1'
asbasbasbag57
(g73
g59
NtRp2040
(dp2041
g62
(dp2042
sg71
g1889
sg64
(lp2043
g57
(g78
g59
NtRp2044
(dp2045
g62
(dp2046
g82
g83
ssg71
g2040
sg64
(lp2047
S'HTTP_USER_AGENT'
p2048
asbag57
(g78
g59
NtRp2049
(dp2050
g62
(dp2051
g89
g90
ssg71
g2040
sg64
(lp2052
S':'
asbag57
(g78
g59
NtRp2053
(dp2054
g62
(dp2055
sg71
g2040
sg64
(lp2056
g57
(g58
g59
NtRp2057
(dp2058
g62
(dp2059
g70
I3
ssg71
g2053
sg64
(lp2060
g619
asbasbasbag57
(g73
g59
NtRp2061
(dp2062
g62
(dp2063
sg71
g1889
sg64
(lp2064
g57
(g78
g59
NtRp2065
(dp2066
g62
(dp2067
g82
g83
ssg71
g2061
sg64
(lp2068
S'PATH_INFO'
p2069
asbag57
(g78
g59
NtRp2070
(dp2071
g62
(dp2072
g89
g90
ssg71
g2061
sg64
(lp2073
S':'
asbag57
(g78
g59
NtRp2074
(dp2075
g62
(dp2076
sg71
g2061
sg64
(lp2077
g57
(g58
g59
NtRp2078
(dp2079
g62
(dp2080
g70
I3
ssg71
g2074
sg64
(lp2081
g683
asbasbasbag57
(g73
g59
NtRp2082
(dp2083
g62
(dp2084
sg71
g1889
sg64
(lp2085
g57
(g78
g59
NtRp2086
(dp2087
g62
(dp2088
g82
g83
ssg71
g2082
sg64
(lp2089
S'QUERY_STRING'
p2090
asbag57
(g78
g59
NtRp2091
(dp2092
g62
(dp2093
g89
g90
ssg71
g2082
sg64
(lp2094
S':'
asbag57
(g78
g59
NtRp2095
(dp2096
g62
(dp2097
sg71
g2082
sg64
(lp2098
g57
(g58
g59
NtRp2099
(dp2100
g62
(dp2101
g70
I3
ssg71
g2095
sg64
(lp2102
S''
asbasbasbag57
(g73
g59
NtRp2103
(dp2104
g62
(dp2105
sg71
g1889
sg64
(lp2106
g57
(g78
g59
NtRp2107
(dp2108
g62
(dp2109
g82
g83
ssg71
g2103
sg64
(lp2110
S'REMOTE_ADDR'
p2111
asbag57
(g78
g59
NtRp2112
(dp2113
g62
(dp2114
g89
g90
ssg71
g2103
sg64
(lp2115
S':'
asbag57
(g78
g59
NtRp2116
(dp2117
g62
(dp2118
sg71
g2103
sg64
(lp2119
g57
(g58
g59
NtRp2120
(dp2121
g62
(dp2122
g70
I3
ssg71
g2116
sg64
(lp2123
g216
asbasbasbag57
(g73
g59
NtRp2124
(dp2125
g62
(dp2126
sg71
g1889
sg64
(lp2127
g57
(g78
g59
NtRp2128
(dp2129
g62
(dp2130
g82
g83
ssg71
g2124
sg64
(lp2131
S'REMOTE_PORT'
p2132
asbag57
(g78
g59
NtRp2133
(dp2134
g62
(dp2135
g89
g90
ssg71
g2124
sg64
(lp2136
S':'
asbag57
(g78
g59
NtRp2137
(dp2138
g62
(dp2139
sg71
g2124
sg64
(lp2140
g57
(g58
g59
NtRp2141
(dp2142
g62
(dp2143
g70
I3
ssg71
g2137
sg64
(lp2144
g747
asbasbasbag57
(g73
g59
NtRp2145
(dp2146
g62
(dp2147
sg71
g1889
sg64
(lp2148
g57
(g78
g59
NtRp2149
(dp2150
g62
(dp2151
g82
g83
ssg71
g2145
sg64
(lp2152
S'REQUEST_METHOD'
p2153
asbag57
(g78
g59
NtRp2154
(dp2155
g62
(dp2156
g89
g90
ssg71
g2145
sg64
(lp2157
S':'
asbag57
(g78
g59
NtRp2158
(dp2159
g62
(dp2160
sg71
g2145
sg64
(lp2161
g57
(g58
g59
NtRp2162
(dp2163
g62
(dp2164
g70
I3
ssg71
g2158
sg64
(lp2165
g769
asbasbasbag57
(g73
g59
NtRp2166
(dp2167
g62
(dp2168
sg71
g1889
sg64
(lp2169
g57
(g78
g59
NtRp2170
(dp2171
g62
(dp2172
g82
g83
ssg71
g2166
sg64
(lp2173
S'SCRIPT_NAME'
p2174
asbag57
(g78
g59
NtRp2175
(dp2176
g62
(dp2177
g89
g90
ssg71
g2166
sg64
(lp2178
S':'
asbag57
(g78
g59
NtRp2179
(dp2180
g62
(dp2181
sg71
g2166
sg64
(lp2182
g57
(g58
g59
NtRp2183
(dp2184
g62
(dp2185
g70
I3
ssg71
g2179
sg64
(lp2186
S''
asbasbasbag57
(g73
g59
NtRp2187
(dp2188
g62
(dp2189
sg71
g1889
sg64
(lp2190
g57
(g78
g59
NtRp2191
(dp2192
g62
(dp2193
g82
g83
ssg71
g2187
sg64
(lp2194
S'SERVER_NAME'
p2195
asbag57
(g78
g59
NtRp2196
(dp2197
g62
(dp2198
g89
g90
ssg71
g2187
sg64
(lp2199
S':'
asbag57
(g78
g59
NtRp2200
(dp2201
g62
(dp2202
sg71
g2187
sg64
(lp2203
g57
(g58
g59
NtRp2204
(dp2205
g62
(dp2206
g70
I3
ssg71
g2200
sg64
(lp2207
g812
asbasbasbag57
(g73
g59
NtRp2208
(dp2209
g62
(dp2210
sg71
g1889
sg64
(lp2211
g57
(g78
g59
NtRp2212
(dp2213
g62
(dp2214
g82
g83
ssg71
g2208
sg64
(lp2215
S'SERVER_PORT'
p2216
asbag57
(g78
g59
NtRp2217
(dp2218
g62
(dp2219
g89
g90
ssg71
g2208
sg64
(lp2220
S':'
asbag57
(g78
g59
NtRp2221
(dp2222
g62
(dp2223
sg71
g2208
sg64
(lp2224
g57
(g58
g59
NtRp2225
(dp2226
g62
(dp2227
g70
I3
ssg71
g2221
sg64
(lp2228
g834
asbasbasbag57
(g73
g59
NtRp2229
(dp2230
g62
(dp2231
sg71
g1889
sg64
(lp2232
g57
(g78
g59
NtRp2233
(dp2234
g62
(dp2235
g82
g83
ssg71
g2229
sg64
(lp2236
S'SERVER_PROTOCOL'
p2237
asbag57
(g78
g59
NtRp2238
(dp2239
g62
(dp2240
g89
g90
ssg71
g2229
sg64
(lp2241
S':'
asbag57
(g78
g59
NtRp2242
(dp2243
g62
(dp2244
sg71
g2229
sg64
(lp2245
g57
(g58
g59
NtRp2246
(dp2247
g62
(dp2248
g70
I3
ssg71
g2242
sg64
(lp2249
g856
asbasbasbag57
(g73
g59
NtRp2250
(dp2251
g62
(dp2252
sg71
g1889
sg64
(lp2253
g57
(g78
g59
NtRp2254
(dp2255
g62
(dp2256
g82
g83
ssg71
g2250
sg64
(lp2257
S'SERVER_SOFTWARE'
p2258
asbag57
(g78
g59
NtRp2259
(dp2260
g62
(dp2261
g89
g90
ssg71
g2250
sg64
(lp2262
S':'
asbag57
(g78
g59
NtRp2263
(dp2264
g62
(dp2265
sg71
g2250
sg64
(lp2266
g57
(g58
g59
NtRp2267
(dp2268
g62
(dp2269
g70
I3
ssg71
g2263
sg64
(lp2270
g878
asbasbasbag57
(g73
g59
NtRp2271
(dp2272
g62
(dp2273
sg71
g1889
sg64
(lp2274
g57
(g78
g59
NtRp2275
(dp2276
g62
(dp2277
g82
g83
ssg71
g2271
sg64
(lp2278
S'wsgi.errors'
p2279
asbag57
(g78
g59
NtRp2280
(dp2281
g62
(dp2282
g89
g90
ssg71
g2271
sg64
(lp2283
S':'
asbag57
(g78
g59
NtRp2284
(dp2285
g62
(dp2286
sg71
g2271
sg64
(lp2287
g57
(g58
g59
NtRp2288
(dp2289
g62
(dp2290
g70
I3
ssg71
g2284
sg64
(lp2291
S"<open file '<stderr>', mode 'w' at 0xb754f0d0>"
p2292
asbasbasbag57
(g73
g59
NtRp2293
(dp2294
g62
(dp2295
sg71
g1889
sg64
(lp2296
g57
(g78
g59
NtRp2297
(dp2298
g62
(dp2299
g82
g83
ssg71
g2293
sg64
(lp2300
S'wsgi.file_wrapper'
p2301
asbag57
(g78
g59
NtRp2302
(dp2303
g62
(dp2304
g89
g90
ssg71
g2293
sg64
(lp2305
S':'
asbag57
(g78
g59
NtRp2306
(dp2307
g62
(dp2308
sg71
g2293
sg64
(lp2309
g57
(g58
g59
NtRp2310
(dp2311
g62
(dp2312
g70
I3
ssg71
g2306
sg64
(lp2313
S'<class wsgiref.util.FileWrapper at 0xb6a61cec>'
p2314
asbasbasbag57
(g73
g59
NtRp2315
(dp2316
g62
(dp2317
sg71
g1889
sg64
(lp2318
g57
(g78
g59
NtRp2319
(dp2320
g62
(dp2321
g82
g83
ssg71
g2315
sg64
(lp2322
S'wsgi.input'
p2323
asbag57
(g78
g59
NtRp2324
(dp2325
g62
(dp2326
g89
g90
ssg71
g2315
sg64
(lp2327
S':'
asbag57
(g78
g59
NtRp2328
(dp2329
g62
(dp2330
sg71
g2315
sg64
(lp2331
g57
(g58
g59
NtRp2332
(dp2333
g62
(dp2334
g70
I3
ssg71
g2328
sg64
(lp2335
S'<cStringIO.StringO object at 0xaa33e840>'
p2336
asbasbasbag57
(g73
g59
NtRp2337
(dp2338
g62
(dp2339
sg71
g1889
sg64
(lp2340
g57
(g78
g59
NtRp2341
(dp2342
g62
(dp2343
g82
g83
ssg71
g2337
sg64
(lp2344
S'wsgi.multiprocess'
p2345
asbag57
(g78
g59
NtRp2346
(dp2347
g62
(dp2348
g89
g90
ssg71
g2337
sg64
(lp2349
S':'
asbag57
(g78
g59
NtRp2350
(dp2351
g62
(dp2352
sg71
g2337
sg64
(lp2353
g57
(g58
g59
NtRp2354
(dp2355
g62
(dp2356
g70
I3
ssg71
g2350
sg64
(lp2357
g100
asbasbasbag57
(g73
g59
NtRp2358
(dp2359
g62
(dp2360
sg71
g1889
sg64
(lp2361
g57
(g78
g59
NtRp2362
(dp2363
g62
(dp2364
g82
g83
ssg71
g2358
sg64
(lp2365
S'wsgi.multithread'
p2366
asbag57
(g78
g59
NtRp2367
(dp2368
g62
(dp2369
g89
g90
ssg71
g2358
sg64
(lp2370
S':'
asbag57
(g78
g59
NtRp2371
(dp2372
g62
(dp2373
sg71
g2358
sg64
(lp2374
g57
(g58
g59
NtRp2375
(dp2376
g62
(dp2377
g70
I3
ssg71
g2371
sg64
(lp2378
g1118
asbasbasbag57
(g73
g59
NtRp2379
(dp2380
g62
(dp2381
sg71
g1889
sg64
(lp2382
g57
(g78
g59
NtRp2383
(dp2384
g62
(dp2385
g82
g83
ssg71
g2379
sg64
(lp2386
S'wsgi.run_once'
p2387
asbag57
(g78
g59
NtRp2388
(dp2389
g62
(dp2390
g89
g90
ssg71
g2379
sg64
(lp2391
S':'
asbag57
(g78
g59
NtRp2392
(dp2393
g62
(dp2394
sg71
g2379
sg64
(lp2395
g57
(g58
g59
NtRp2396
(dp2397
g62
(dp2398
g70
I3
ssg71
g2392
sg64
(lp2399
g100
asbasbasbag57
(g73
g59
NtRp2400
(dp2401
g62
(dp2402
sg71
g1889
sg64
(lp2403
g57
(g78
g59
NtRp2404
(dp2405
g62
(dp2406
g82
g83
ssg71
g2400
sg64
(lp2407
S'wsgi.url_scheme'
p2408
asbag57
(g78
g59
NtRp2409
(dp2410
g62
(dp2411
g89
g90
ssg71
g2400
sg64
(lp2412
S':'
asbag57
(g78
g59
NtRp2413
(dp2414
g62
(dp2415
sg71
g2400
sg64
(lp2416
g57
(g58
g59
NtRp2417
(dp2418
g62
(dp2419
g70
I3
ssg71
g2413
sg64
(lp2420
g1161
asbasbasbag57
(g73
g59
NtRp2421
(dp2422
g62
(dp2423
sg71
g1889
sg64
(lp2424
g57
(g78
g59
NtRp2425
(dp2426
g62
(dp2427
g82
g83
ssg71
g2421
sg64
(lp2428
S'wsgi.version'
p2429
asbag57
(g78
g59
NtRp2430
(dp2431
g62
(dp2432
g89
g90
ssg71
g2421
sg64
(lp2433
S':'
asbag57
(g78
g59
NtRp2434
(dp2435
g62
(dp2436
sg71
g2421
sg64
(lp2437
g57
(g58
g59
NtRp2438
(dp2439
g62
(dp2440
g70
I3
ssg71
g2434
sg64
(lp2441
S'1'
asbasbasbasbasbasbasbasbasbasbasbasbasbsS'frames'
p2442
(lp2443
(dp2444
S'file'
p2445
S'/usr/lib/pymodules/python2.7/gluon/restricted.py'
p2446
sS'dump'
p2447
(dp2448
S'environment'
p2449
S"{'A': <class 'gluon.html.A'>, 'B': <class 'gluon.html.B'>, 'BEAUTIFY': <class 'gluon.html.BEAUTIFY'>, 'BODY': <class 'gluon.html.BODY'>, 'BR': <class 'gluon.html.BR'>, 'BUTTON': <class 'gluon.html.BUTTON'>, 'CAT': <class 'gluon.html.CAT'>, 'CENTER': <class 'gluon.html.CENTER'>, 'CHECK_VERSION': True, 'CLEANUP': <class 'gluon.validators.CLEANUP'>, ...}"
p2450
sS'ccode'
p2451
S'<code object <module> at 0xb1031ad0, file "/home...h/web2py/applications/admin/models/0.py", line 1>'
p2452
ssS'lnum'
p2453
I205
sS'lines'
p2454
(dp2455
I200
S'    try:'
p2456
sI201
S'        if type(code) == types.CodeType:'
p2457
sI202
S'            ccode = code'
p2458
sI203
S'        else:'
p2459
sI204
S'            ccode = compile2(code,layer)'
p2460
sI205
S'        exec ccode in environment'
p2461
sI206
S'    except HTTP:'
p2462
sI207
S'        raise'
p2463
sI208
S'    except RestrictedError:'
p2464
sI209
S'        # do not encapsulate (obfuscate) the original RestrictedError'
p2465
ssS'call'
p2466
S'(code="EXPIRATION = 60 * 60  # logout after 60 minutes ...plit(\'-\')[0]\\nresponse.static_version_urls = True\\n", environment={\'A\': <class \'gluon.html.A\'>, \'B\': <class \'gluon.html.B\'>, \'BEAUTIFY\': <class \'gluon.html.BEAUTIFY\'>, \'BODY\': <class \'gluon.html.BODY\'>, \'BR\': <class \'gluon.html.BR\'>, \'BUTTON\': <class \'gluon.html.BUTTON\'>, \'CAT\': <class \'gluon.html.CAT\'>, \'CENTER\': <class \'gluon.html.CENTER\'>, \'CHECK_VERSION\': True, \'CLEANUP\': <class \'gluon.validators.CLEANUP\'>, ...}, layer=\'/home/ayush/web2py/applications/admin/models/0.py\')'
p2467
sS'func'
p2468
S'restricted'
p2469
sa(dp2470
g2445
S'/home/ayush/web2py/applications/admin/models/0.py'
p2471
sg2447
(dp2472
S'global_settings'
p2473
S"<Storage {'debugging': False, 'is_pypy': False, ...e': 'hard', 'gluon_parent': '/usr/share/web2py'}>"
p2474
sS'global_settings.web2py_version'
p2475
S"(1, 99, 7, datetime.datetime(2012, 3, 4, 22, 12, 8), 'stable')"
p2476
sS'global_settings.web2py_version.split'
p2477
S'undefined'
p2478
sS'response'
p2479
S"<Storage {'status': 200, 'body': <cStringIO.Stri...fc>, 'files': [], 'view': 'default/ticket.html'}>"
p2480
sS'response.static_version'
p2481
S'None'
p2482
ssg2453
I49
sg2454
(dp2483
I41
S"#PLUGINS_APP = 'http://127.0.0.1:8000/plugins'"
p2484
sI42
S''
sI43
S'# set the language'
p2485
sI44
S"if 'adminLanguage' in request.cookies and not (request.cookies['adminLanguage'] is None):"
p2486
sI45
S"    T.force(request.cookies['adminLanguage'].value)"
p2487
sI46
S''
sI47
S'#set static_version'
p2488
sI48
S'from gluon.settings import global_settings'
p2489
sI49
S"response.static_version = global_settings.web2py_version.split('-')[0]"
p2490
sI50
S'response.static_version_urls = True'
p2491
ssg2466
S'()'
p2492
sg2468
S'<module>'
p2493
sasS'pyver'
p2494
S'Python 2.7.6: /usr/bin/python'
p2495
sS'session'
p2496
g57
(g58
g59
NtRp2497
(dp2498
g62
(dp2499
sg64
(lp2500
g57
(g66
g59
NtRp2501
(dp2502
g62
(dp2503
g70
I5
ssg71
Nsg64
(lp2504
sbasbsS'etype'
p2505
S"<type 'exceptions.AttributeError'>"
p2506
sS'date'
p2507
S'Sat Jan  7 21:55:38 2017'
p2508
sS'response'
p2509
g57
(g58
g59
NtRp2510
(dp2511
g62
(dp2512
sg64
(lp2513
g57
(g66
g59
NtRp2514
(dp2515
g62
(dp2516
g70
I5
ssg71
Nsg64
(lp2517
g57
(g73
g59
NtRp2518
(dp2519
g62
(dp2520
sg71
g2514
sg64
(lp2521
g57
(g78
g59
NtRp2522
(dp2523
g62
(dp2524
g82
g83
ssg71
g2518
sg64
(lp2525
g181
asbag57
(g78
g59
NtRp2526
(dp2527
g62
(dp2528
g89
g90
ssg71
g2518
sg64
(lp2529
S':'
asbag57
(g78
g59
NtRp2530
(dp2531
g62
(dp2532
sg71
g2518
sg64
(lp2533
g57
(g58
g59
NtRp2534
(dp2535
g62
(dp2536
g70
I5
ssg71
g2530
sg64
(lp2537
S'<cStringIO.StringO object at 0xaa33ee40>'
p2538
asbasbasbag57
(g73
g59
NtRp2539
(dp2540
g62
(dp2541
sg71
g2514
sg64
(lp2542
g57
(g78
g59
NtRp2543
(dp2544
g62
(dp2545
g82
g83
ssg71
g2539
sg64
(lp2546
g247
asbag57
(g78
g59
NtRp2547
(dp2548
g62
(dp2549
g89
g90
ssg71
g2539
sg64
(lp2550
S':'
asbag57
(g78
g59
NtRp2551
(dp2552
g62
(dp2553
sg71
g2539
sg64
(lp2554
g57
(g58
g59
NtRp2555
(dp2556
g62
(dp2557
g70
I5
ssg71
g2551
sg64
(lp2558
g57
(g66
g59
NtRp2559
(dp2560
g62
(dp2561
g70
I4
ssg71
Nsg64
(lp2562
g57
(g73
g59
NtRp2563
(dp2564
g62
(dp2565
sg71
g2559
sg64
(lp2566
g57
(g78
g59
NtRp2567
(dp2568
g62
(dp2569
g82
g83
ssg71
g2563
sg64
(lp2570
S'session_id_admin'
p2571
asbag57
(g78
g59
NtRp2572
(dp2573
g62
(dp2574
g89
g90
ssg71
g2563
sg64
(lp2575
S':'
asbag57
(g78
g59
NtRp2576
(dp2577
g62
(dp2578
sg71
g2563
sg64
(lp2579
g57
(g58
g59
NtRp2580
(dp2581
g62
(dp2582
g70
I4
ssg71
g2576
sg64
(lp2583
g57
(g66
g59
NtRp2584
(dp2585
g62
(dp2586
g70
I3
ssg71
Nsg64
(lp2587
g57
(g73
g59
NtRp2588
(dp2589
g62
(dp2590
sg71
g2584
sg64
(lp2591
g57
(g78
g59
NtRp2592
(dp2593
g62
(dp2594
g82
g83
ssg71
g2588
sg64
(lp2595
S'comment'
p2596
asbag57
(g78
g59
NtRp2597
(dp2598
g62
(dp2599
g89
g90
ssg71
g2588
sg64
(lp2600
S':'
asbag57
(g78
g59
NtRp2601
(dp2602
g62
(dp2603
sg71
g2588
sg64
(lp2604
g57
(g58
g59
NtRp2605
(dp2606
g62
(dp2607
g70
I3
ssg71
g2601
sg64
(lp2608
S''
asbasbasbag57
(g73
g59
NtRp2609
(dp2610
g62
(dp2611
sg71
g2584
sg64
(lp2612
g57
(g78
g59
NtRp2613
(dp2614
g62
(dp2615
g82
g83
ssg71
g2609
sg64
(lp2616
S'domain'
p2617
asbag57
(g78
g59
NtRp2618
(dp2619
g62
(dp2620
g89
g90
ssg71
g2609
sg64
(lp2621
S':'
asbag57
(g78
g59
NtRp2622
(dp2623
g62
(dp2624
sg71
g2609
sg64
(lp2625
g57
(g58
g59
NtRp2626
(dp2627
g62
(dp2628
g70
I3
ssg71
g2622
sg64
(lp2629
S''
asbasbasbag57
(g73
g59
NtRp2630
(dp2631
g62
(dp2632
sg71
g2584
sg64
(lp2633
g57
(g78
g59
NtRp2634
(dp2635
g62
(dp2636
g82
g83
ssg71
g2630
sg64
(lp2637
S'expires'
p2638
asbag57
(g78
g59
NtRp2639
(dp2640
g62
(dp2641
g89
g90
ssg71
g2630
sg64
(lp2642
S':'
asbag57
(g78
g59
NtRp2643
(dp2644
g62
(dp2645
sg71
g2630
sg64
(lp2646
g57
(g58
g59
NtRp2647
(dp2648
g62
(dp2649
g70
I3
ssg71
g2643
sg64
(lp2650
S''
asbasbasbag57
(g73
g59
NtRp2651
(dp2652
g62
(dp2653
sg71
g2584
sg64
(lp2654
g57
(g78
g59
NtRp2655
(dp2656
g62
(dp2657
g82
g83
ssg71
g2651
sg64
(lp2658
S'httponly'
p2659
asbag57
(g78
g59
NtRp2660
(dp2661
g62
(dp2662
g89
g90
ssg71
g2651
sg64
(lp2663
S':'
asbag57
(g78
g59
NtRp2664
(dp2665
g62
(dp2666
sg71
g2651
sg64
(lp2667
g57
(g58
g59
NtRp2668
(dp2669
g62
(dp2670
g70
I3
ssg71
g2664
sg64
(lp2671
S''
asbasbasbag57
(g73
g59
NtRp2672
(dp2673
g62
(dp2674
sg71
g2584
sg64
(lp2675
g57
(g78
g59
NtRp2676
(dp2677
g62
(dp2678
g82
g83
ssg71
g2672
sg64
(lp2679
S'max-age'
p2680
asbag57
(g78
g59
NtRp2681
(dp2682
g62
(dp2683
g89
g90
ssg71
g2672
sg64
(lp2684
S':'
asbag57
(g78
g59
NtRp2685
(dp2686
g62
(dp2687
sg71
g2672
sg64
(lp2688
g57
(g58
g59
NtRp2689
(dp2690
g62
(dp2691
g70
I3
ssg71
g2685
sg64
(lp2692
S''
asbasbasbag57
(g73
g59
NtRp2693
(dp2694
g62
(dp2695
sg71
g2584
sg64
(lp2696
g57
(g78
g59
NtRp2697
(dp2698
g62
(dp2699
g82
g83
ssg71
g2693
sg64
(lp2700
S'path'
p2701
asbag57
(g78
g59
NtRp2702
(dp2703
g62
(dp2704
g89
g90
ssg71
g2693
sg64
(lp2705
S':'
asbag57
(g78
g59
NtRp2706
(dp2707
g62
(dp2708
sg71
g2693
sg64
(lp2709
g57
(g58
g59
NtRp2710
(dp2711
g62
(dp2712
g70
I3
ssg71
g2706
sg64
(lp2713
S'/'
asbasbasbag57
(g73
g59
NtRp2714
(dp2715
g62
(dp2716
sg71
g2584
sg64
(lp2717
g57
(g78
g59
NtRp2718
(dp2719
g62
(dp2720
g82
g83
ssg71
g2714
sg64
(lp2721
S'secure'
p2722
asbag57
(g78
g59
NtRp2723
(dp2724
g62
(dp2725
g89
g90
ssg71
g2714
sg64
(lp2726
S':'
asbag57
(g78
g59
NtRp2727
(dp2728
g62
(dp2729
sg71
g2714
sg64
(lp2730
g57
(g58
g59
NtRp2731
(dp2732
g62
(dp2733
g70
I3
ssg71
g2727
sg64
(lp2734
S''
asbasbasbag57
(g73
g59
NtRp2735
(dp2736
g62
(dp2737
sg71
g2584
sg64
(lp2738
g57
(g78
g59
NtRp2739
(dp2740
g62
(dp2741
g82
g83
ssg71
g2735
sg64
(lp2742
S'version'
p2743
asbag57
(g78
g59
NtRp2744
(dp2745
g62
(dp2746
g89
g90
ssg71
g2735
sg64
(lp2747
S':'
asbag57
(g78
g59
NtRp2748
(dp2749
g62
(dp2750
sg71
g2735
sg64
(lp2751
g57
(g58
g59
NtRp2752
(dp2753
g62
(dp2754
g70
I3
ssg71
g2748
sg64
(lp2755
S''
asbasbasbasbasbasbasbasbasbasbasbag57
(g73
g59
NtRp2756
(dp2757
g62
(dp2758
sg71
g2514
sg64
(lp2759
g57
(g78
g59
NtRp2760
(dp2761
g62
(dp2762
g82
g83
ssg71
g2756
sg64
(lp2763
S'delimiters'
p2764
asbag57
(g78
g59
NtRp2765
(dp2766
g62
(dp2767
g89
g90
ssg71
g2756
sg64
(lp2768
S':'
asbag57
(g78
g59
NtRp2769
(dp2770
g62
(dp2771
sg71
g2756
sg64
(lp2772
g57
(g58
g59
NtRp2773
(dp2774
g62
(dp2775
g70
I5
ssg71
g2769
sg64
(lp2776
g57
(g66
g59
NtRp2777
(dp2778
g62
(dp2779
g70
I4
ssg71
Nsg64
(lp2780
g57
(g73
g59
NtRp2781
(dp2782
g62
(dp2783
sg71
g2777
sg64
(lp2784
g57
(g78
g59
NtRp2785
(dp2786
g62
(dp2787
sg71
g2781
sg64
(lp2788
g57
(g58
g59
NtRp2789
(dp2790
g62
(dp2791
g70
I4
ssg71
g2785
sg64
(lp2792
S'{{'
p2793
asbasbasbag57
(g73
g59
NtRp2794
(dp2795
g62
(dp2796
sg71
g2777
sg64
(lp2797
g57
(g78
g59
NtRp2798
(dp2799
g62
(dp2800
sg71
g2794
sg64
(lp2801
g57
(g58
g59
NtRp2802
(dp2803
g62
(dp2804
g70
I4
ssg71
g2798
sg64
(lp2805
S'}}'
p2806
asbasbasbasbasbasbasbag57
(g73
g59
NtRp2807
(dp2808
g62
(dp2809
sg71
g2514
sg64
(lp2810
g57
(g78
g59
NtRp2811
(dp2812
g62
(dp2813
g82
g83
ssg71
g2807
sg64
(lp2814
S'files'
p2815
asbag57
(g78
g59
NtRp2816
(dp2817
g62
(dp2818
g89
g90
ssg71
g2807
sg64
(lp2819
S':'
asbag57
(g78
g59
NtRp2820
(dp2821
g62
(dp2822
sg71
g2807
sg64
(lp2823
g57
(g58
g59
NtRp2824
(dp2825
g62
(dp2826
g70
I5
ssg71
g2820
sg64
(lp2827
g57
(g66
g59
NtRp2828
(dp2829
g62
(dp2830
g70
I4
ssg71
Nsg64
(lp2831
sbasbasbasbag57
(g73
g59
NtRp2832
(dp2833
g62
(dp2834
sg71
g2514
sg64
(lp2835
g57
(g78
g59
NtRp2836
(dp2837
g62
(dp2838
g82
g83
ssg71
g2832
sg64
(lp2839
S'flash'
p2840
asbag57
(g78
g59
NtRp2841
(dp2842
g62
(dp2843
g89
g90
ssg71
g2832
sg64
(lp2844
S':'
asbag57
(g78
g59
NtRp2845
(dp2846
g62
(dp2847
sg71
g2832
sg64
(lp2848
g57
(g58
g59
NtRp2849
(dp2850
g62
(dp2851
g70
I5
ssg71
g2845
sg64
(lp2852
S''
asbasbasbag57
(g73
g59
NtRp2853
(dp2854
g62
(dp2855
sg71
g2514
sg64
(lp2856
g57
(g78
g59
NtRp2857
(dp2858
g62
(dp2859
g82
g83
ssg71
g2853
sg64
(lp2860
S'generic_patterns'
p2861
asbag57
(g78
g59
NtRp2862
(dp2863
g62
(dp2864
g89
g90
ssg71
g2853
sg64
(lp2865
S':'
asbag57
(g78
g59
NtRp2866
(dp2867
g62
(dp2868
sg71
g2853
sg64
(lp2869
g57
(g58
g59
NtRp2870
(dp2871
g62
(dp2872
g70
I5
ssg71
g2866
sg64
(lp2873
g57
(g66
g59
NtRp2874
(dp2875
g62
(dp2876
g70
I4
ssg71
Nsg64
(lp2877
sbasbasbasbag57
(g73
g59
NtRp2878
(dp2879
g62
(dp2880
sg71
g2514
sg64
(lp2881
g57
(g78
g59
NtRp2882
(dp2883
g62
(dp2884
g82
g83
ssg71
g2878
sg64
(lp2885
S'headers'
p2886
asbag57
(g78
g59
NtRp2887
(dp2888
g62
(dp2889
g89
g90
ssg71
g2878
sg64
(lp2890
S':'
asbag57
(g78
g59
NtRp2891
(dp2892
g62
(dp2893
sg71
g2878
sg64
(lp2894
g57
(g58
g59
NtRp2895
(dp2896
g62
(dp2897
g70
I5
ssg71
g2891
sg64
(lp2898
g57
(g66
g59
NtRp2899
(dp2900
g62
(dp2901
g70
I4
ssg71
Nsg64
(lp2902
g57
(g73
g59
NtRp2903
(dp2904
g62
(dp2905
sg71
g2899
sg64
(lp2906
g57
(g78
g59
NtRp2907
(dp2908
g62
(dp2909
g82
g83
ssg71
g2903
sg64
(lp2910
S'Cache-Control'
p2911
asbag57
(g78
g59
NtRp2912
(dp2913
g62
(dp2914
g89
g90
ssg71
g2903
sg64
(lp2915
S':'
asbag57
(g78
g59
NtRp2916
(dp2917
g62
(dp2918
sg71
g2903
sg64
(lp2919
g57
(g58
g59
NtRp2920
(dp2921
g62
(dp2922
g70
I4
ssg71
g2916
sg64
(lp2923
S'no-store, no-cache, must-revalidate, post-check=0, pre-check=0'
p2924
asbasbasbag57
(g73
g59
NtRp2925
(dp2926
g62
(dp2927
sg71
g2899
sg64
(lp2928
g57
(g78
g59
NtRp2929
(dp2930
g62
(dp2931
g82
g83
ssg71
g2925
sg64
(lp2932
S'Content-Type'
p2933
asbag57
(g78
g59
NtRp2934
(dp2935
g62
(dp2936
g89
g90
ssg71
g2925
sg64
(lp2937
S':'
asbag57
(g78
g59
NtRp2938
(dp2939
g62
(dp2940
sg71
g2925
sg64
(lp2941
g57
(g58
g59
NtRp2942
(dp2943
g62
(dp2944
g70
I4
ssg71
g2938
sg64
(lp2945
S'text/html; charset=utf-8'
p2946
asbasbasbag57
(g73
g59
NtRp2947
(dp2948
g62
(dp2949
sg71
g2899
sg64
(lp2950
g57
(g78
g59
NtRp2951
(dp2952
g62
(dp2953
g82
g83
ssg71
g2947
sg64
(lp2954
S'Expires'
p2955
asbag57
(g78
g59
NtRp2956
(dp2957
g62
(dp2958
g89
g90
ssg71
g2947
sg64
(lp2959
S':'
asbag57
(g78
g59
NtRp2960
(dp2961
g62
(dp2962
sg71
g2947
sg64
(lp2963
g57
(g58
g59
NtRp2964
(dp2965
g62
(dp2966
g70
I4
ssg71
g2960
sg64
(lp2967
S'Sat, 07 Jan 2017 16:25:37 GMT'
p2968
asbasbasbag57
(g73
g59
NtRp2969
(dp2970
g62
(dp2971
sg71
g2899
sg64
(lp2972
g57
(g78
g59
NtRp2973
(dp2974
g62
(dp2975
g82
g83
ssg71
g2969
sg64
(lp2976
S'Pragma'
p2977
asbag57
(g78
g59
NtRp2978
(dp2979
g62
(dp2980
g89
g90
ssg71
g2969
sg64
(lp2981
S':'
asbag57
(g78
g59
NtRp2982
(dp2983
g62
(dp2984
sg71
g2969
sg64
(lp2985
g57
(g58
g59
NtRp2986
(dp2987
g62
(dp2988
g70
I4
ssg71
g2982
sg64
(lp2989
S'no-cache'
p2990
asbasbasbag57
(g73
g59
NtRp2991
(dp2992
g62
(dp2993
sg71
g2899
sg64
(lp2994
g57
(g78
g59
NtRp2995
(dp2996
g62
(dp2997
g82
g83
ssg71
g2991
sg64
(lp2998
S'X-Powered-By'
p2999
asbag57
(g78
g59
NtRp3000
(dp3001
g62
(dp3002
g89
g90
ssg71
g2991
sg64
(lp3003
S':'
asbag57
(g78
g59
NtRp3004
(dp3005
g62
(dp3006
sg71
g2991
sg64
(lp3007
g57
(g58
g59
NtRp3008
(dp3009
g62
(dp3010
g70
I4
ssg71
g3004
sg64
(lp3011
S'web2py'
p3012
asbasbasbasbasbasbasbag57
(g73
g59
NtRp3013
(dp3014
g62
(dp3015
sg71
g2514
sg64
(lp3016
g57
(g78
g59
NtRp3017
(dp3018
g62
(dp3019
g82
g83
ssg71
g3013
sg64
(lp3020
S'menu'
p3021
asbag57
(g78
g59
NtRp3022
(dp3023
g62
(dp3024
g89
g90
ssg71
g3013
sg64
(lp3025
S':'
asbag57
(g78
g59
NtRp3026
(dp3027
g62
(dp3028
sg71
g3013
sg64
(lp3029
g57
(g58
g59
NtRp3030
(dp3031
g62
(dp3032
g70
I5
ssg71
g3026
sg64
(lp3033
g57
(g66
g59
NtRp3034
(dp3035
g62
(dp3036
g70
I4
ssg71
Nsg64
(lp3037
sbasbasbasbag57
(g73
g59
NtRp3038
(dp3039
g62
(dp3040
sg71
g2514
sg64
(lp3041
g57
(g78
g59
NtRp3042
(dp3043
g62
(dp3044
g82
g83
ssg71
g3038
sg64
(lp3045
S'meta'
p3046
asbag57
(g78
g59
NtRp3047
(dp3048
g62
(dp3049
g89
g90
ssg71
g3038
sg64
(lp3050
S':'
asbag57
(g78
g59
NtRp3051
(dp3052
g62
(dp3053
sg71
g3038
sg64
(lp3054
g57
(g58
g59
NtRp3055
(dp3056
g62
(dp3057
g70
I5
ssg71
g3051
sg64
(lp3058
g57
(g66
g59
NtRp3059
(dp3060
g62
(dp3061
g70
I4
ssg71
Nsg64
(lp3062
sbasbasbasbag57
(g73
g59
NtRp3063
(dp3064
g62
(dp3065
sg71
g2514
sg64
(lp3066
g57
(g78
g59
NtRp3067
(dp3068
g62
(dp3069
g82
g83
ssg71
g3063
sg64
(lp3070
S'postprocessing'
p3071
asbag57
(g78
g59
NtRp3072
(dp3073
g62
(dp3074
g89
g90
ssg71
g3063
sg64
(lp3075
S':'
asbag57
(g78
g59
NtRp3076
(dp3077
g62
(dp3078
sg71
g3063
sg64
(lp3079
g57
(g58
g59
NtRp3080
(dp3081
g62
(dp3082
g70
I5
ssg71
g3076
sg64
(lp3083
g57
(g66
g59
NtRp3084
(dp3085
g62
(dp3086
g70
I4
ssg71
Nsg64
(lp3087
sbasbasbasbag57
(g73
g59
NtRp3088
(dp3089
g62
(dp3090
sg71
g2514
sg64
(lp3091
g57
(g78
g59
NtRp3092
(dp3093
g62
(dp3094
g82
g83
ssg71
g3088
sg64
(lp3095
S'session_filename'
p3096
asbag57
(g78
g59
NtRp3097
(dp3098
g62
(dp3099
g89
g90
ssg71
g3088
sg64
(lp3100
S':'
asbag57
(g78
g59
NtRp3101
(dp3102
g62
(dp3103
sg71
g3088
sg64
(lp3104
g57
(g58
g59
NtRp3105
(dp3106
g62
(dp3107
g70
I5
ssg71
g3101
sg64
(lp3108
S'/home/ayush/web2py/applications/admin/sessions/127.0.0.1-590b1ebd-a279-49d1-8115-127ca60834a3'
p3109
asbasbasbag57
(g73
g59
NtRp3110
(dp3111
g62
(dp3112
sg71
g2514
sg64
(lp3113
g57
(g78
g59
NtRp3114
(dp3115
g62
(dp3116
g82
g83
ssg71
g3110
sg64
(lp3117
S'session_id'
p3118
asbag57
(g78
g59
NtRp3119
(dp3120
g62
(dp3121
g89
g90
ssg71
g3110
sg64
(lp3122
S':'
asbag57
(g78
g59
NtRp3123
(dp3124
g62
(dp3125
sg71
g3110
sg64
(lp3126
g57
(g58
g59
NtRp3127
(dp3128
g62
(dp3129
g70
I5
ssg71
g3123
sg64
(lp3130
S'127.0.0.1-590b1ebd-a279-49d1-8115-127ca60834a3'
p3131
asbasbasbag57
(g73
g59
NtRp3132
(dp3133
g62
(dp3134
sg71
g2514
sg64
(lp3135
g57
(g78
g59
NtRp3136
(dp3137
g62
(dp3138
g82
g83
ssg71
g3132
sg64
(lp3139
S'session_id_name'
p3140
asbag57
(g78
g59
NtRp3141
(dp3142
g62
(dp3143
g89
g90
ssg71
g3132
sg64
(lp3144
S':'
asbag57
(g78
g59
NtRp3145
(dp3146
g62
(dp3147
sg71
g3132
sg64
(lp3148
g57
(g58
g59
NtRp3149
(dp3150
g62
(dp3151
g70
I5
ssg71
g3145
sg64
(lp3152
g2571
asbasbasbag57
(g73
g59
NtRp3153
(dp3154
g62
(dp3155
sg71
g2514
sg64
(lp3156
g57
(g78
g59
NtRp3157
(dp3158
g62
(dp3159
g82
g83
ssg71
g3153
sg64
(lp3160
S'session_new'
p3161
asbag57
(g78
g59
NtRp3162
(dp3163
g62
(dp3164
g89
g90
ssg71
g3153
sg64
(lp3165
S':'
asbag57
(g78
g59
NtRp3166
(dp3167
g62
(dp3168
sg71
g3153
sg64
(lp3169
g57
(g58
g59
NtRp3170
(dp3171
g62
(dp3172
g70
I5
ssg71
g3166
sg64
(lp3173
g1118
asbasbasbag57
(g73
g59
NtRp3174
(dp3175
g62
(dp3176
sg71
g2514
sg64
(lp3177
g57
(g78
g59
NtRp3178
(dp3179
g62
(dp3180
g82
g83
ssg71
g3174
sg64
(lp3181
S'status'
p3182
asbag57
(g78
g59
NtRp3183
(dp3184
g62
(dp3185
g89
g90
ssg71
g3174
sg64
(lp3186
S':'
asbag57
(g78
g59
NtRp3187
(dp3188
g62
(dp3189
sg71
g3174
sg64
(lp3190
g57
(g58
g59
NtRp3191
(dp3192
g62
(dp3193
g70
I5
ssg71
g3187
sg64
(lp3194
S'200'
p3195
asbasbasbag57
(g73
g59
NtRp3196
(dp3197
g62
(dp3198
sg71
g2514
sg64
(lp3199
g57
(g78
g59
NtRp3200
(dp3201
g62
(dp3202
g82
g83
ssg71
g3196
sg64
(lp3203
g1804
asbag57
(g78
g59
NtRp3204
(dp3205
g62
(dp3206
g89
g90
ssg71
g3196
sg64
(lp3207
S':'
asbag57
(g78
g59
NtRp3208
(dp3209
g62
(dp3210
sg71
g3196
sg64
(lp3211
g57
(g58
g59
NtRp3212
(dp3213
g62
(dp3214
g70
I5
ssg71
g3208
sg64
(lp3215
g1817
asbasbasbag57
(g73
g59
NtRp3216
(dp3217
g62
(dp3218
sg71
g2514
sg64
(lp3219
g57
(g78
g59
NtRp3220
(dp3221
g62
(dp3222
g82
g83
ssg71
g3216
sg64
(lp3223
S'view'
p3224
asbag57
(g78
g59
NtRp3225
(dp3226
g62
(dp3227
g89
g90
ssg71
g3216
sg64
(lp3228
S':'
asbag57
(g78
g59
NtRp3229
(dp3230
g62
(dp3231
sg71
g3216
sg64
(lp3232
g57
(g58
g59
NtRp3233
(dp3234
g62
(dp3235
g70
I5
ssg71
g3229
sg64
(lp3236
S'default/ticket.html'
p3237
asbasbasbasbasbsS'locals'
p3238
(dp3239
S'OBJECT'
p3240
S"<class 'gluon.html.OBJECT'>"
p3241
sS'SQLDB'
p3242
S"<class 'gluon.dal.DAL'>"
p3243
sg2496
S"<Storage {'_Session__hash': '\\xc8[\\xd5\\xc1#\\xd8e\\x10\\xe3\\x06\\x0ba\\xddT\\x92m'}>"
p3244
sS'LINK'
p3245
S"<class 'gluon.html.LINK'>"
p3246
sS'BR'
p3247
S"<class 'gluon.html.BR'>"
p3248
sS'local_import'
p3249
S'<function <lambda>>'
p3250
sS'OPTGROUP'
p3251
S"<class 'gluon.html.OPTGROUP'>"
p3252
sS'LI'
p3253
S"<class 'gluon.html.LI'>"
p3254
sS'PRE'
p3255
S"<class 'gluon.html.PRE'>"
p3256
sS'IS_INT_IN_RANGE'
p3257
S"<class 'gluon.validators.IS_INT_IN_RANGE'>"
p3258
sS'IS_LOWER'
p3259
S"<class 'gluon.validators.IS_LOWER'>"
p3260
sS'IS_STRONG'
p3261
S"<class 'gluon.validators.IS_STRONG'>"
p3262
sS'cache'
p3263
S'<gluon.cache.Cache object>'
p3264
sS'IS_IN_DB'
p3265
S"<class 'gluon.validators.IS_IN_DB'>"
p3266
sS'TAG'
p3267
S'<gluon.html.__TAG__ object>'
p3268
sS'WEB2PY_VERSION_URL'
p3269
S"'http://web2py.com/examples/default/version'"
p3270
sS'SQLField'
p3271
S"<class 'gluon.dal.Field'>"
p3272
sS'BODY'
p3273
S"<class 'gluon.html.BODY'>"
p3274
sS'IS_DATE_IN_RANGE'
p3275
S"<class 'gluon.validators.IS_DATE_IN_RANGE'>"
p3276
sS'IFRAME'
p3277
S"<class 'gluon.html.IFRAME'>"
p3278
sS'URL'
p3279
S'<function URL>'
p3280
sS'__file__'
p3281
S"'/home/ayush/web2py/applications/admin/models/0.py'"
p3282
sS'P'
S"<class 'gluon.html.P'>"
p3283
sS'TFOOT'
p3284
S"<class 'gluon.html.TFOOT'>"
p3285
sS'XHTML'
p3286
S"<class 'gluon.html.XHTML'>"
p3287
sS'ON'
p3288
g1118
sS'OL'
p3289
S"<class 'gluon.html.OL'>"
p3290
sS'TEXTAREA'
p3291
S"<class 'gluon.html.TEXTAREA'>"
p3292
sS'MENU'
p3293
S"<class 'gluon.html.MENU'>"
p3294
sS'EMAIL_LOGIN'
p3295
S'None'
p3296
sS'WEB2PY_URL'
p3297
S"'http://web2py.com'"
p3298
sS'EM'
p3299
S"<class 'gluon.html.EM'>"
p3300
sS'CODE'
p3301
S"<class 'gluon.html.CODE'>"
p3302
sS'HTTP'
p3303
S"<class 'gluon.http.HTTP'>"
p3304
sS'HR'
p3305
S"<class 'gluon.html.HR'>"
p3306
sS'IS_DATETIME'
p3307
S"<class 'gluon.validators.IS_DATETIME'>"
p3308
sS'STYLE'
p3309
S"<class 'gluon.html.STYLE'>"
p3310
sS'LABEL'
p3311
S"<class 'gluon.html.LABEL'>"
p3312
sS'META'
p3313
S"<class 'gluon.html.META'>"
p3314
sS'SELECT'
p3315
S"<class 'gluon.html.SELECT'>"
p3316
sS'DEMO_MODE'
p3317
g100
sS'LAYOUTS_APP'
p3318
S"'http://web2py.com/layouts'"
p3319
sS'CENTER'
p3320
S"<class 'gluon.html.CENTER'>"
p3321
sS'__builtins__'
p3322
S"{'ArithmeticError': <type 'exceptions.ArithmeticError'>, 'AssertionError': <type 'exceptions.AssertionError'>, 'AttributeError': <type 'exceptions.AttributeError'>, 'BaseException': <type 'exceptions.BaseException'>, 'BufferError': <type 'exceptions.BufferError'>, 'BytesWarning': <type 'exceptions.BytesWarning'>, 'DeprecationWarning': <type 'exceptions.DeprecationWarning'>, 'EOFError': <type 'exceptions.EOFError'>, 'Ellipsis': Ellipsis, 'EnvironmentError': <type 'exceptions.EnvironmentError'>, ...}"
p3323
sS'HTML'
p3324
S"<class 'gluon.html.HTML'>"
p3325
sS'SQLFORM'
p3326
S"<class 'gluon.sqlhtml.SQLFORM'>"
p3327
sS'EMAIL_SERVER'
p3328
S"'localhost'"
p3329
sS'LOAD'
p3330
S'<function LOAD>'
p3331
sS'redirect'
p3332
S'<function redirect>'
p3333
sS'FIELDSET'
p3334
S"<class 'gluon.html.FIELDSET'>"
p3335
sS'IS_EQUAL_TO'
p3336
S"<class 'gluon.validators.IS_EQUAL_TO'>"
p3337
sS'FILTER_APPS'
p3338
S'[]'
p3339
sS'embed64'
p3340
S'<function embed64>'
p3341
sS'IS_LIST_OF'
p3342
S"<class 'gluon.validators.IS_LIST_OF'>"
p3343
sS'INPUT'
p3344
S"<class 'gluon.html.INPUT'>"
p3345
sS'EMBED'
p3346
S"<class 'gluon.html.EMBED'>"
p3347
sS'FORM'
p3348
S"<class 'gluon.html.FORM'>"
p3349
sS'H2'
p3350
S"<class 'gluon.html.H2'>"
p3351
sS'H3'
p3352
S"<class 'gluon.html.H3'>"
p3353
sS'BUTTON'
p3354
S"<class 'gluon.html.BUTTON'>"
p3355
sS'H1'
p3356
S"<class 'gluon.html.H1'>"
p3357
sS'H6'
p3358
S"<class 'gluon.html.H6'>"
p3359
sS'H4'
p3360
S"<class 'gluon.html.H4'>"
p3361
sS'H5'
p3362
S"<class 'gluon.html.H5'>"
p3363
sS'UL'
p3364
S"<class 'gluon.html.UL'>"
p3365
sS'IS_UPPER'
p3366
S"<class 'gluon.validators.IS_UPPER'>"
p3367
sS'xmlescape'
p3368
S'<function xmlescape>'
p3369
sS'IS_TIME'
p3370
S"<class 'gluon.validators.IS_TIME'>"
p3371
sS'os'
p3372
S"<module 'os' from '/usr/lib/python2.7/os.pyc'>"
p3373
sS'OPTION'
p3374
S"<class 'gluon.html.OPTION'>"
p3375
sS'TITLE'
p3376
S"<class 'gluon.html.TITLE'>"
p3377
sS'CRYPT'
p3378
S"<class 'gluon.validators.CRYPT'>"
p3379
sS'IS_EMPTY_OR'
p3380
S"<class 'gluon.validators.IS_EMPTY_OR'>"
p3381
sS'MARKMIN'
p3382
S"<class 'gluon.html.MARKMIN'>"
p3383
sS'__name__'
p3384
S"'__restricted__'"
p3385
sS'MULTI_USER_MODE'
p3386
g100
sS'COL'
p3387
S"<class 'gluon.html.COL'>"
p3388
sS'SCRIPT'
p3389
S"<class 'gluon.html.SCRIPT'>"
p3390
sS'EXPIRATION'
p3391
S'3600'
p3392
sS'TABLE'
p3393
S"<class 'gluon.html.TABLE'>"
p3394
sg1310
S"<Storage {'debugging': False, 'is_pypy': False, ...e': 'hard', 'gluon_parent': '/usr/share/web2py'}>"
p3395
sS'IS_IPV4'
p3396
S"<class 'gluon.validators.IS_IPV4'>"
p3397
sS'IS_LENGTH'
p3398
S"<class 'gluon.validators.IS_LENGTH'>"
p3399
sS'XML'
p3400
S"<class 'gluon.html.XML'>"
p3401
sS'B'
S"<class 'gluon.html.B'>"
p3402
sS'IMG'
p3403
S"<class 'gluon.html.IMG'>"
p3404
sS'SQLTABLE'
p3405
S"<class 'gluon.sqlhtml.SQLTABLE'>"
p3406
sS'IS_MATCH'
p3407
S"<class 'gluon.validators.IS_MATCH'>"
p3408
sS'IS_ALPHANUMERIC'
p3409
S"<class 'gluon.validators.IS_ALPHANUMERIC'>"
p3410
sS'SPAN'
p3411
S"<class 'gluon.html.SPAN'>"
p3412
sS'IS_SLUG'
p3413
S"<class 'gluon.validators.IS_SLUG'>"
p3414
sS'CHECK_VERSION'
p3415
g1118
sS'CLEANUP'
p3416
S"<class 'gluon.validators.CLEANUP'>"
p3417
sS'IS_DATE'
p3418
S"<class 'gluon.validators.IS_DATE'>"
p3419
sS'IS_EMAIL'
p3420
S"<class 'gluon.validators.IS_EMAIL'>"
p3421
sS'IS_NOT_EMPTY'
p3422
S"<class 'gluon.validators.IS_NOT_EMPTY'>"
p3423
sS'IS_FLOAT_IN_RANGE'
p3424
S"<class 'gluon.validators.IS_FLOAT_IN_RANGE'>"
p3425
sS'BEAUTIFY'
p3426
S"<class 'gluon.html.BEAUTIFY'>"
p3427
sS'TBODY'
p3428
S"<class 'gluon.html.TBODY'>"
p3429
sS'CAT'
p3430
S"<class 'gluon.html.CAT'>"
p3431
sS'Field'
p3432
S"<class 'gluon.dal.Field'>"
p3433
sS'DIV'
p3434
S"<class 'gluon.html.DIV'>"
p3435
sS'LEGEND'
p3436
S"<class 'gluon.html.LEGEND'>"
p3437
sS'COLGROUP'
p3438
S"<class 'gluon.html.COLGROUP'>"
p3439
sS'DAL'
p3440
S"<class 'gluon.dal.DAL'>"
p3441
sS'TT'
p3442
S"<class 'gluon.html.TT'>"
p3443
sS'TR'
p3444
S"<class 'gluon.html.TR'>"
p3445
sS'__package__'
p3446
S'None'
p3447
sS'TH'
p3448
S"<class 'gluon.html.TH'>"
p3449
sS'TD'
p3450
S"<class 'gluon.html.TD'>"
p3451
sS'IS_URL'
p3452
S"<class 'gluon.validators.IS_URL'>"
p3453
sS'A'
S"<class 'gluon.html.A'>"
p3454
sS'HEAD'
p3455
S"<class 'gluon.html.HEAD'>"
p3456
sS'IS_DATETIME_IN_RANGE'
p3457
S"<class 'gluon.validators.IS_DATETIME_IN_RANGE'>"
p3458
sS'IS_IMAGE'
p3459
S"<class 'gluon.validators.IS_IMAGE'>"
p3460
sS'I'
S"<class 'gluon.html.I'>"
p3461
sS'IS_NOT_IN_DB'
p3462
S"<class 'gluon.validators.IS_NOT_IN_DB'>"
p3463
sg2509
S"<Storage {'status': 200, 'body': <cStringIO.Stri...fc>, 'files': [], 'view': 'default/ticket.html'}>"
p3464
sS'THEAD'
p3465
S"<class 'gluon.html.THEAD'>"
p3466
sS'IS_NULL_OR'
p3467
S"<class 'gluon.validators.IS_EMPTY_OR'>"
p3468
sS'PLUGINS_APP'
p3469
S"'http://web2py.com/plugins'"
p3470
sS'GAE_APPCFG'
p3471
S"'/usr/local/bin/appcfg.py'"
p3472
sg56
S"<Storage {'body': <cStringIO.StringO object at 0..._vars': <Storage {}>, 'post_vars': <Storage {}>}>"
p3473
sS'IS_EXPR'
p3474
S"<class 'gluon.validators.IS_EXPR'>"
p3475
sS'EMAIL_SENDER'
p3476
S"'professor@example.com'"
p3477
sS'IS_IN_SET'
p3478
S"<class 'gluon.validators.IS_IN_SET'>"
p3479
sS'TWITTER_HASH'
p3480
S"'web2py'"
p3481
sS'IS_UPLOAD_FILENAME'
p3482
S"<class 'gluon.validators.IS_UPLOAD_FILENAME'>"
p3483
sS'IS_DECIMAL_IN_RANGE'
p3484
S"<class 'gluon.validators.IS_DECIMAL_IN_RANGE'>"
p3485
sS'T'
S'<gluon.languages.translator object>'
p3486
sssS'traceback'
p3487
S'Traceback (most recent call last):\n  File "/usr/lib/pymodules/python2.7/gluon/restricted.py", line 205, in restricted\n    exec ccode in environment\n  File "/home/ayush/web2py/applications/admin/models/0.py", line 49, in <module>\n    response.static_version = global_settings.web2py_version.split(\'-\')[0]\nAttributeError: \'tuple\' object has no attribute \'split\'\n'
p3488
s.